Archive member included because of file (symbol)

\Projects\AADS\xCore\x_files\Linux-Debug\x_files.lib(x_plus.obj)
                              .\Linux-debug\bytestream.obj (x_strlen(char const *))
\Projects\AADS\xCore\x_files\Linux-Debug\x_files.lib(x_memory.obj)
                              \Projects\AADS\xCore\x_files\Linux-Debug\x_files.lib(x_plus.obj) (x_debug_malloc(int, char const *, int))
\Projects\AADS\xCore\x_files\Linux-Debug\x_files.lib(x_debug.obj)
                              \Projects\AADS\xCore\x_files\Linux-Debug\x_files.lib(x_plus.obj) (RTFHandler(char const *, int, char const *, char const *))
\Projects\AADS\xCore\x_files\Linux-Debug\x_files.lib(x_time.obj)
                              \Projects\AADS\xCore\x_files\Linux-Debug\x_files.lib(x_debug.obj) (x_GetTimeSec(void))
\Projects\AADS\xCore\x_files\Linux-Debug\x_files.lib(x_threads.obj)
                              \Projects\AADS\xCore\x_files\Linux-Debug\x_files.lib(x_memory.obj) (x_BeginAtomic(void))
\Projects\AADS\xCore\x_files\Linux-Debug\x_files.lib(x_string.obj)
                              \Projects\AADS\xCore\x_files\Linux-Debug\x_files.lib(x_debug.obj) (xvfs::xvfs(char const *, char *))
\Projects\AADS\xCore\x_files\Linux-Debug\x_files.lib(x_stdio.obj)
                              \Projects\AADS\xCore\x_files\Linux-Debug\x_files.lib(x_string.obj) (x_printf(char const *,...))
\Projects\AADS\xCore\x_files\Linux-Debug\x_files.lib(x_mutex.obj)
                              \Projects\AADS\xCore\x_files\Linux-Debug\x_files.lib(x_threads.obj) (xmutex::xmutex(void))
\Projects\AADS\xCore\x_files\Linux-Debug\x_files.lib(x_files.obj)
                              \Projects\AADS\xCore\x_files\Linux-Debug\x_files.lib(x_string.obj) (x_GetThreadGlobals(void))
\Projects\AADS\xCore\x_files\Linux-Debug\x_files.lib(x_vsprintf.obj)
                              \Projects\AADS\xCore\x_files\Linux-Debug\x_files.lib(x_string.obj) (x_vsprintf(char *, char const *, char *))
C:\Projects\AADS\xCore/3rdparty/linux/lib/libm.a(w_pow.o)
                              \Projects\AADS\xCore\x_files\Linux-Debug\x_files.lib(x_plus.obj) (pow)
C:\Projects\AADS\xCore/3rdparty/linux/lib/libm.a(k_standard.o)
                              C:\Projects\AADS\xCore/3rdparty/linux/lib/libm.a(w_pow.o) (__kernel_standard)
C:\Projects\AADS\xCore/3rdparty/linux/lib/libm.a(s_lib_version.o)
                              C:\Projects\AADS\xCore/3rdparty/linux/lib/libm.a(w_pow.o) (_LIB_VERSION)
C:\Projects\AADS\xCore/3rdparty/linux/lib/libm.a(s_matherr.o)
                              C:\Projects\AADS\xCore/3rdparty/linux/lib/libm.a(k_standard.o) (matherr)
C:\Projects\AADS\xCore/3rdparty/linux/lib/libm.a(e_pow.o)
                              C:\Projects\AADS\xCore/3rdparty/linux/lib/libm.a(w_pow.o) (__ieee754_pow)
C:\Projects\AADS\xCore/3rdparty/linux/lib/libm.a(s_copysign.o)
                              C:\Projects\AADS\xCore/3rdparty/linux/lib/libm.a(k_standard.o) (__copysign)
C:\Projects\AADS\xCore/3rdparty/linux/lib/libm.a(s_finite.o)
                              C:\Projects\AADS\xCore/3rdparty/linux/lib/libm.a(w_pow.o) (__finite)
C:\Projects\AADS\xCore/3rdparty/linux/lib/libm.a(s_rint.o)
                              C:\Projects\AADS\xCore/3rdparty/linux/lib/libm.a(k_standard.o) (__rint)
C:\Projects\AADS\xCore/3rdparty/linux/lib/libc.a(libc-start.o)
                              C:\Projects\AADS\xCore/3rdparty/linux/lib/crt1.o (__libc_start_main)
C:\Projects\AADS\xCore/3rdparty/linux/lib/libc.a(check_fds.o)
                              C:\Projects\AADS\xCore/3rdparty/linux/lib/libc.a(libc-start.o) (__libc_check_standard_fds)
C:\Projects\AADS\xCore/3rdparty/linux/lib/libc.a(errno-loc.o)
                              C:\Projects\AADS\xCore/3rdparty/linux/lib/libm.a(k_standard.o) (__errno_location)
C:\Projects\AADS\xCore/3rdparty/linux/lib/libc.a(assert.o)
                              C:\Projects\AADS\xCore/3rdparty/linux/lib/libm.a(k_standard.o) (__assert_fail)
C:\Projects\AADS\xCore/3rdparty/linux/lib/libc.a(dcgettext.o)
                              C:\Projects\AADS\xCore/3rdparty/linux/lib/libc.a(assert.o) (__dcgettext)
C:\Projects\AADS\xCore/3rdparty/linux/lib/libc.a(dcigettext.o)
                              C:\Projects\AADS\xCore/3rdparty/linux/lib/libc.a(dcgettext.o) (__dcigettext)
C:\Projects\AADS\xCore/3rdparty/linux/lib/libc.a(finddomain.o)
                              C:\Projects\AADS\xCore/3rdparty/linux/lib/libc.a(dcigettext.o) (_nl_find_domain)
C:\Projects\AADS\xCore/3rdparty/linux/lib/libc.a(loadmsgcat.o)
                              C:\Projects\AADS\xCore/3rdparty/linux/lib/libc.a(dcigettext.o) (_nl_load_domain)
C:\Projects\AADS\xCore/3rdparty/linux/lib/libc.a(localealias.o)
                              C:\Projects\AADS\xCore/3rdparty/linux/lib/libc.a(finddomain.o) (_nl_expand_alias)
C:\Projects\AADS\xCore/3rdparty/linux/lib/libc.a(l10nflist.o)
                              C:\Projects\AADS\xCore/3rdparty/linux/lib/libc.a(finddomain.o) (_nl_make_l10nflist)
C:\Projects\AADS\xCore/3rdparty/linux/lib/libc.a(explodename.o)
                              C:\Projects\AADS\xCore/3rdparty/linux/lib/libc.a(finddomain.o) (_nl_explode_name)
C:\Projects\AADS\xCore/3rdparty/linux/lib/libc.a(plural.o)
                              C:\Projects\AADS\xCore/3rdparty/linux/lib/libc.a(loadmsgcat.o) (__gettextparse)
C:\Projects\AADS\xCore/3rdparty/linux/lib/libc.a(s_isnan.o)
                              C:\Projects\AADS\xCore/3rdparty/linux/lib/libm.a(w_pow.o) (__isnan)
C:\Projects\AADS\xCore/3rdparty/linux/lib/libc.a(abort.o)
                              C:\Projects\AADS\xCore/3rdparty/linux/lib/libc.a(assert.o) (abort)
C:\Projects\AADS\xCore/3rdparty/linux/lib/libc.a(bsearch.o)
                              C:\Projects\AADS\xCore/3rdparty/linux/lib/libc.a(localealias.o) (bsearch)
C:\Projects\AADS\xCore/3rdparty/linux/lib/libc.a(msort.o)
                              C:\Projects\AADS\xCore/3rdparty/linux/lib/libc.a(localealias.o) (qsort)
C:\Projects\AADS\xCore/3rdparty/linux/lib/libc.a(getenv.o)
                              C:\Projects\AADS\xCore/3rdparty/linux/lib/libc.a(dcigettext.o) (getenv)
C:\Projects\AADS\xCore/3rdparty/linux/lib/libc.a(exit.o)
                              C:\Projects\AADS\xCore/3rdparty/linux/lib/libc.a(libc-start.o) (exit)
C:\Projects\AADS\xCore/3rdparty/linux/lib/libc.a(atexit.o)
                              C:\Projects\AADS\xCore/3rdparty/linux/lib/libc.a(libc-start.o) (atexit)
C:\Projects\AADS\xCore/3rdparty/linux/lib/libc.a(strtoul.o)
                              C:\Projects\AADS\xCore/3rdparty/linux/lib/libc.a(loadmsgcat.o) (__strtoul_internal)
C:\Projects\AADS\xCore/3rdparty/linux/lib/libc.a(fprintf.o)
                              C:\Projects\AADS\xCore/3rdparty/linux/lib/libc.a(assert.o) (fprintf)
C:\Projects\AADS\xCore/3rdparty/linux/lib/libc.a(printf.o)
                              \Projects\AADS\xCore\x_files\Linux-Debug\x_files.lib(x_debug.obj) (printf)
C:\Projects\AADS\xCore/3rdparty/linux/lib/libc.a(iofclose.o)
                              \Projects\AADS\xCore\x_files\Linux-Debug\x_files.lib(x_stdio.obj) (fclose)
C:\Projects\AADS\xCore/3rdparty/linux/lib/libc.a(iofflush.o)
                              C:\Projects\AADS\xCore/3rdparty/linux/lib/libc.a(assert.o) (_IO_fflush)
C:\Projects\AADS\xCore/3rdparty/linux/lib/libc.a(iofopen.o)
                              \Projects\AADS\xCore\x_files\Linux-Debug\x_files.lib(x_stdio.obj) (fopen)
C:\Projects\AADS\xCore/3rdparty/linux/lib/libc.a(iofputs.o)
                              C:\Projects\AADS\xCore/3rdparty/linux/lib/libm.a(k_standard.o) (fputs)
C:\Projects\AADS\xCore/3rdparty/linux/lib/libc.a(iofread.o)
                              \Projects\AADS\xCore\x_files\Linux-Debug\x_files.lib(x_stdio.obj) (fread)
C:\Projects\AADS\xCore/3rdparty/linux/lib/libc.a(ioftell.o)
                              \Projects\AADS\xCore\x_files\Linux-Debug\x_files.lib(x_stdio.obj) (ftell)
C:\Projects\AADS\xCore/3rdparty/linux/lib/libc.a(iofwrite.o)
                              \Projects\AADS\xCore\x_files\Linux-Debug\x_files.lib(x_stdio.obj) (fwrite)
C:\Projects\AADS\xCore/3rdparty/linux/lib/libc.a(ioseekoff.o)
                              C:\Projects\AADS\xCore/3rdparty/linux/lib/libc.a(ioftell.o) (_IO_seekoff)
C:\Projects\AADS\xCore/3rdparty/linux/lib/libc.a(iovsprintf.o)
                              \Projects\AADS\xCore\x_files\Linux-Debug\x_files.lib(x_vsprintf.obj) (vsprintf)
C:\Projects\AADS\xCore/3rdparty/linux/lib/libc.a(wfileops.o)
                              C:\Projects\AADS\xCore/3rdparty/linux/lib/libc.a(iofopen.o) (_IO_wfile_jumps)
C:\Projects\AADS\xCore/3rdparty/linux/lib/libc.a(feof.o)
                              \Projects\AADS\xCore\x_files\Linux-Debug\x_files.lib(x_stdio.obj) (feof)
C:\Projects\AADS\xCore/3rdparty/linux/lib/libc.a(fseek.o)
                              \Projects\AADS\xCore\x_files\Linux-Debug\x_files.lib(x_stdio.obj) (fseek)
C:\Projects\AADS\xCore/3rdparty/linux/lib/libc.a(fcloseall.o)
                              C:\Projects\AADS\xCore/3rdparty/linux/lib/libc.a(abort.o) (__fcloseall)
C:\Projects\AADS\xCore/3rdparty/linux/lib/libc.a(iofgets_u.o)
                              C:\Projects\AADS\xCore/3rdparty/linux/lib/libc.a(localealias.o) (fgets_unlocked)
C:\Projects\AADS\xCore/3rdparty/linux/lib/libc.a(fileops.o)
                              C:\Projects\AADS\xCore/3rdparty/linux/lib/libc.a(wfileops.o) (_IO_do_write)
C:\Projects\AADS\xCore/3rdparty/linux/lib/libc.a(genops.o)
                              C:\Projects\AADS\xCore/3rdparty/linux/lib/libc.a(iofopen.o) (_IO_un_link)
C:\Projects\AADS\xCore/3rdparty/linux/lib/libc.a(stdfiles.o)
                              C:\Projects\AADS\xCore/3rdparty/linux/lib/libc.a(genops.o) (_IO_list_all)
C:\Projects\AADS\xCore/3rdparty/linux/lib/libc.a(stdio.o)
                              C:\Projects\AADS\xCore/3rdparty/linux/lib/libc.a(printf.o) (stdout)
C:\Projects\AADS\xCore/3rdparty/linux/lib/libc.a(strops.o)
                              C:\Projects\AADS\xCore/3rdparty/linux/lib/libc.a(iovsprintf.o) (_IO_str_init_static)
C:\Projects\AADS\xCore/3rdparty/linux/lib/libc.a(malloc.o)
                              C:\Projects\AADS\xCore/3rdparty/linux/lib/libc.a(dcigettext.o) (calloc)
C:\Projects\AADS\xCore/3rdparty/linux/lib/libc.a(morecore.o)
                              C:\Projects\AADS\xCore/3rdparty/linux/lib/libc.a(malloc.o) (__default_morecore)
C:\Projects\AADS\xCore/3rdparty/linux/lib/libc.a(strchr.o)
                              C:\Projects\AADS\xCore/3rdparty/linux/lib/libc.a(dcigettext.o) (strchr)
C:\Projects\AADS\xCore/3rdparty/linux/lib/libc.a(strcmp.o)
                              C:\Projects\AADS\xCore/3rdparty/linux/lib/libc.a(dcigettext.o) (strcmp)
C:\Projects\AADS\xCore/3rdparty/linux/lib/libc.a(strdup.o)
                              C:\Projects\AADS\xCore/3rdparty/linux/lib/libc.a(finddomain.o) (__strdup)
C:\Projects\AADS\xCore/3rdparty/linux/lib/libc.a(strncmp.o)
                              C:\Projects\AADS\xCore/3rdparty/linux/lib/libc.a(getenv.o) (strncmp)
C:\Projects\AADS\xCore/3rdparty/linux/lib/libc.a(strrchr.o)
                              C:\Projects\AADS\xCore/3rdparty/linux/lib/libc.a(assert.o) (strrchr)
C:\Projects\AADS\xCore/3rdparty/linux/lib/libc.a(strstr.o)
                              C:\Projects\AADS\xCore/3rdparty/linux/lib/libc.a(loadmsgcat.o) (strstr)
C:\Projects\AADS\xCore/3rdparty/linux/lib/libc.a(memmove.o)
                              C:\Projects\AADS\xCore/3rdparty/linux/lib/libc.a(wfileops.o) (memmove)
C:\Projects\AADS\xCore/3rdparty/linux/lib/libc.a(memset.o)
                              C:\Projects\AADS\xCore/3rdparty/linux/lib/libc.a(malloc.o) (memset)
C:\Projects\AADS\xCore/3rdparty/linux/lib/libc.a(mempcpy.o)
                              C:\Projects\AADS\xCore/3rdparty/linux/lib/libc.a(dcigettext.o) (__mempcpy)
C:\Projects\AADS\xCore/3rdparty/linux/lib/libc.a(stpcpy.o)
                              C:\Projects\AADS\xCore/3rdparty/linux/lib/libc.a(dcigettext.o) (__stpcpy)
C:\Projects\AADS\xCore/3rdparty/linux/lib/libc.a(strcasecmp.o)
                              C:\Projects\AADS\xCore/3rdparty/linux/lib/libc.a(localealias.o) (__strcasecmp)
C:\Projects\AADS\xCore/3rdparty/linux/lib/libc.a(memcpy.o)
                              C:\Projects\AADS\xCore/3rdparty/linux/lib/libc.a(dcigettext.o) (memcpy)
C:\Projects\AADS\xCore/3rdparty/linux/lib/libc.a(rawmemchr.o)
                              C:\Projects\AADS\xCore/3rdparty/linux/lib/libc.a(dcigettext.o) (__rawmemchr)
C:\Projects\AADS\xCore/3rdparty/linux/lib/libc.a(argz-count.o)
                              C:\Projects\AADS\xCore/3rdparty/linux/lib/libc.a(l10nflist.o) (__argz_count)
C:\Projects\AADS\xCore/3rdparty/linux/lib/libc.a(argz-stringify.o)
                              C:\Projects\AADS\xCore/3rdparty/linux/lib/libc.a(l10nflist.o) (__argz_stringify)
C:\Projects\AADS\xCore/3rdparty/linux/lib/libc.a(wmempcpy.o)
                              C:\Projects\AADS\xCore/3rdparty/linux/lib/libc.a(wfileops.o) (__wmempcpy)
C:\Projects\AADS\xCore/3rdparty/linux/lib/libc.a(wcsmbsload.o)
                              C:\Projects\AADS\xCore/3rdparty/linux/lib/libc.a(fileops.o) (__wcsmbs_named_conv)
C:\Projects\AADS\xCore/3rdparty/linux/lib/libc.a(gettimeofday.o)
                              \Projects\AADS\xCore\x_files\Linux-Debug\x_files.lib(x_time.obj) (gettimeofday)
C:\Projects\AADS\xCore/3rdparty/linux/lib/libc.a(_exit.o)
                              C:\Projects\AADS\xCore/3rdparty/linux/lib/libc.a(abort.o) (_exit)
C:\Projects\AADS\xCore/3rdparty/linux/lib/libc.a(sysconf.o)
                              C:\Projects\AADS\xCore/3rdparty/linux/lib/libc.a(msort.o) (__sysconf)
C:\Projects\AADS\xCore/3rdparty/linux/lib/libc.a(environ.o)
                              C:\Projects\AADS\xCore/3rdparty/linux/lib/libc.a(libc-start.o) (__environ)
C:\Projects\AADS\xCore/3rdparty/linux/lib/libc.a(fxstat64.o)
                              C:\Projects\AADS\xCore/3rdparty/linux/lib/libc.a(check_fds.o) (__fxstat64)
C:\Projects\AADS\xCore/3rdparty/linux/lib/libc.a(open.o)
                              C:\Projects\AADS\xCore/3rdparty/linux/lib/libc.a(check_fds.o) (__libc_open)
C:\Projects\AADS\xCore/3rdparty/linux/lib/libc.a(open64.o)
                              C:\Projects\AADS\xCore/3rdparty/linux/lib/libc.a(fileops.o) (__open64)
C:\Projects\AADS\xCore/3rdparty/linux/lib/libc.a(close.o)
                              C:\Projects\AADS\xCore/3rdparty/linux/lib/libc.a(loadmsgcat.o) (__close)
C:\Projects\AADS\xCore/3rdparty/linux/lib/libc.a(read.o)
                              C:\Projects\AADS\xCore/3rdparty/linux/lib/libc.a(loadmsgcat.o) (__read)
C:\Projects\AADS\xCore/3rdparty/linux/lib/libc.a(write.o)
                              C:\Projects\AADS\xCore/3rdparty/linux/lib/libc.a(fileops.o) (__write)
C:\Projects\AADS\xCore/3rdparty/linux/lib/libc.a(fcntl.o)
                              C:\Projects\AADS\xCore/3rdparty/linux/lib/libc.a(check_fds.o) (__libc_fcntl)
C:\Projects\AADS\xCore/3rdparty/linux/lib/libc.a(getcwd.o)
                              C:\Projects\AADS\xCore/3rdparty/linux/lib/libc.a(dcigettext.o) (__getcwd)
C:\Projects\AADS\xCore/3rdparty/linux/lib/libc.a(readlink.o)
                              C:\Projects\AADS\xCore/3rdparty/linux/lib/libc.a(getcwd.o) (__readlink)
C:\Projects\AADS\xCore/3rdparty/linux/lib/libc.a(sbrk.o)
                              C:\Projects\AADS\xCore/3rdparty/linux/lib/libc.a(morecore.o) (__sbrk)
C:\Projects\AADS\xCore/3rdparty/linux/lib/libc.a(getpagesize.o)
                              C:\Projects\AADS\xCore/3rdparty/linux/lib/libc.a(malloc.o) (__getpagesize)
C:\Projects\AADS\xCore/3rdparty/linux/lib/libc.a(getdtsz.o)
                              C:\Projects\AADS\xCore/3rdparty/linux/lib/libc.a(sysconf.o) (__getdtablesize)
C:\Projects\AADS\xCore/3rdparty/linux/lib/libc.a(usleep.o)
                              \Projects\AADS\xCore\x_files\Linux-Debug\x_files.lib(x_threads.obj) (usleep)
C:\Projects\AADS\xCore/3rdparty/linux/lib/libc.a(mmap.o)
                              C:\Projects\AADS\xCore/3rdparty/linux/lib/libc.a(loadmsgcat.o) (__mmap)
C:\Projects\AADS\xCore/3rdparty/linux/lib/libc.a(munmap.o)
                              C:\Projects\AADS\xCore/3rdparty/linux/lib/libc.a(loadmsgcat.o) (__munmap)
C:\Projects\AADS\xCore/3rdparty/linux/lib/libc.a(mprotect.o)
                              C:\Projects\AADS\xCore/3rdparty/linux/lib/libc.a(malloc.o) (__mprotect)
C:\Projects\AADS\xCore/3rdparty/linux/lib/libc.a(tsearch.o)
                              C:\Projects\AADS\xCore/3rdparty/linux/lib/libc.a(dcigettext.o) (__tsearch)
C:\Projects\AADS\xCore/3rdparty/linux/lib/libc.a(getsysstats.o)
                              C:\Projects\AADS\xCore/3rdparty/linux/lib/libc.a(sysconf.o) (__get_nprocs)
C:\Projects\AADS\xCore/3rdparty/linux/lib/libc.a(getclktck.o)
                              C:\Projects\AADS\xCore/3rdparty/linux/lib/libc.a(sysconf.o) (__getclktck)
C:\Projects\AADS\xCore/3rdparty/linux/lib/libc.a(llseek.o)
                              C:\Projects\AADS\xCore/3rdparty/linux/lib/libc.a(fileops.o) (__lseek64)
C:\Projects\AADS\xCore/3rdparty/linux/lib/libc.a(mremap.o)
                              C:\Projects\AADS\xCore/3rdparty/linux/lib/libc.a(malloc.o) (__mremap)
C:\Projects\AADS\xCore/3rdparty/linux/lib/libc.a(weaks.o)
                              \Projects\AADS\xCore\x_files\Linux-Debug\x_files.lib(x_threads.obj) (pthread_attr_init)
C:\Projects\AADS\xCore/3rdparty/linux/lib/libc.a(no-tsd.o)
                              C:\Projects\AADS\xCore/3rdparty/linux/lib/libc.a(malloc.o) (__libc_internal_tsd_get)
C:\Projects\AADS\xCore/3rdparty/linux/lib/libc.a(dl-load.o)
                              C:\Projects\AADS\xCore/3rdparty/linux/lib/libc.a(getpagesize.o) (_dl_pagesize)
C:\Projects\AADS\xCore/3rdparty/linux/lib/libc.a(dl-cache.o)
                              C:\Projects\AADS\xCore/3rdparty/linux/lib/libc.a(dl-load.o) (_dl_load_cache_lookup)
C:\Projects\AADS\xCore/3rdparty/linux/lib/libc.a(dl-lookup.o)
                              C:\Projects\AADS\xCore/3rdparty/linux/lib/libc.a(dl-load.o) (_dl_setup_hash)
C:\Projects\AADS\xCore/3rdparty/linux/lib/libc.a(dl-object.o)
                              C:\Projects\AADS\xCore/3rdparty/linux/lib/libc.a(dl-load.o) (_dl_new_object)
C:\Projects\AADS\xCore/3rdparty/linux/lib/libc.a(dl-error.o)
                              C:\Projects\AADS\xCore/3rdparty/linux/lib/libc.a(dl-load.o) (_dl_signal_error)
C:\Projects\AADS\xCore/3rdparty/linux/lib/libc.a(dl-misc.o)
                              C:\Projects\AADS\xCore/3rdparty/linux/lib/libc.a(dl-cache.o) (_dl_sysdep_read_whole_file)
C:\Projects\AADS\xCore/3rdparty/linux/lib/libc.a(dl-support.o)
                              C:\Projects\AADS\xCore/3rdparty/linux/lib/libc.a(dl-load.o) (_dl_argv)
C:\Projects\AADS\xCore/3rdparty/linux/lib/libc.a(enbl-secure.o)
                              C:\Projects\AADS\xCore/3rdparty/linux/lib/libc.a(libc-start.o) (__libc_enable_secure)
C:\Projects\AADS\xCore/3rdparty/linux/lib/libc.a(dl-origin.o)
                              C:\Projects\AADS\xCore/3rdparty/linux/lib/libc.a(dl-load.o) (_dl_get_origin)
C:\Projects\AADS\xCore/3rdparty/linux/lib/libc.a(dl-procinfo.o)
                              C:\Projects\AADS\xCore/3rdparty/linux/lib/libc.a(dl-cache.o) (_dl_x86_platforms)
C:\Projects\AADS\xCore/3rdparty/linux/lib/libc.a(init-first.o)
                              C:\Projects\AADS\xCore/3rdparty/linux/lib/libc.a(libc-start.o) (__libc_multiple_libcs)
C:\Projects\AADS\xCore/3rdparty/linux/lib/libc.a(set-init.o)
                              C:\Projects\AADS\xCore/3rdparty/linux/lib/libc.a(init-first.o) (__libc_init)
C:\Projects\AADS\xCore/3rdparty/linux/lib/libc.a(sysdep.o)
                              C:\Projects\AADS\xCore/3rdparty/linux/lib/libc.a(errno-loc.o) (errno)
C:\Projects\AADS\xCore/3rdparty/linux/lib/libc.a(gconv_open.o)
                              C:\Projects\AADS\xCore/3rdparty/linux/lib/libc.a(loadmsgcat.o) (__gconv_open)
C:\Projects\AADS\xCore/3rdparty/linux/lib/libc.a(gconv.o)
                              C:\Projects\AADS\xCore/3rdparty/linux/lib/libc.a(dcigettext.o) (__gconv)
C:\Projects\AADS\xCore/3rdparty/linux/lib/libc.a(gconv_close.o)
                              C:\Projects\AADS\xCore/3rdparty/linux/lib/libc.a(loadmsgcat.o) (__gconv_close)
C:\Projects\AADS\xCore/3rdparty/linux/lib/libc.a(gconv_db.o)
                              C:\Projects\AADS\xCore/3rdparty/linux/lib/libc.a(wcsmbsload.o) (__gconv_find_transform)
C:\Projects\AADS\xCore/3rdparty/linux/lib/libc.a(gconv_conf.o)
                              C:\Projects\AADS\xCore/3rdparty/linux/lib/libc.a(gconv_db.o) (__gconv_read_conf)
C:\Projects\AADS\xCore/3rdparty/linux/lib/libc.a(gconv_builtin.o)
                              C:\Projects\AADS\xCore/3rdparty/linux/lib/libc.a(gconv_db.o) (__gconv_get_builtin_trans)
C:\Projects\AADS\xCore/3rdparty/linux/lib/libc.a(gconv_simple.o)
                              C:\Projects\AADS\xCore/3rdparty/linux/lib/libc.a(gconv_builtin.o) (__gconv_transform_internal_ucs4)
C:\Projects\AADS\xCore/3rdparty/linux/lib/libc.a(gconv_trans.o)
                              C:\Projects\AADS\xCore/3rdparty/linux/lib/libc.a(gconv_open.o) (__gconv_transliterate)
C:\Projects\AADS\xCore/3rdparty/linux/lib/libc.a(gconv_dl.o)
                              C:\Projects\AADS\xCore/3rdparty/linux/lib/libc.a(gconv_db.o) (__gconv_find_shlib)
C:\Projects\AADS\xCore/3rdparty/linux/lib/libc.a(setlocale.o)
                              C:\Projects\AADS\xCore/3rdparty/linux/lib/libc.a(loadmsgcat.o) (_nl_current)
C:\Projects\AADS\xCore/3rdparty/linux/lib/libc.a(findlocale.o)
                              C:\Projects\AADS\xCore/3rdparty/linux/lib/libc.a(setlocale.o) (_nl_find_locale)
C:\Projects\AADS\xCore/3rdparty/linux/lib/libc.a(loadlocale.o)
                              C:\Projects\AADS\xCore/3rdparty/linux/lib/libc.a(findlocale.o) (_nl_load_locale)
C:\Projects\AADS\xCore/3rdparty/linux/lib/libc.a(lc-ctype.o)
                              C:\Projects\AADS\xCore/3rdparty/linux/lib/libc.a(wcsmbsload.o) (_nl_current_LC_CTYPE)
C:\Projects\AADS\xCore/3rdparty/linux/lib/libc.a(lc-messages.o)
                              C:\Projects\AADS\xCore/3rdparty/linux/lib/libc.a(setlocale.o) (_nl_current_LC_MESSAGES)
C:\Projects\AADS\xCore/3rdparty/linux/lib/libc.a(lc-monetary.o)
                              C:\Projects\AADS\xCore/3rdparty/linux/lib/libc.a(setlocale.o) (_nl_current_LC_MONETARY)
C:\Projects\AADS\xCore/3rdparty/linux/lib/libc.a(lc-numeric.o)
                              C:\Projects\AADS\xCore/3rdparty/linux/lib/libc.a(strtoul.o) (_nl_current_LC_NUMERIC)
C:\Projects\AADS\xCore/3rdparty/linux/lib/libc.a(lc-time.o)
                              C:\Projects\AADS\xCore/3rdparty/linux/lib/libc.a(setlocale.o) (_nl_current_LC_TIME)
C:\Projects\AADS\xCore/3rdparty/linux/lib/libc.a(lc-paper.o)
                              C:\Projects\AADS\xCore/3rdparty/linux/lib/libc.a(setlocale.o) (_nl_current_LC_PAPER)
C:\Projects\AADS\xCore/3rdparty/linux/lib/libc.a(lc-name.o)
                              C:\Projects\AADS\xCore/3rdparty/linux/lib/libc.a(setlocale.o) (_nl_current_LC_NAME)
C:\Projects\AADS\xCore/3rdparty/linux/lib/libc.a(lc-address.o)
                              C:\Projects\AADS\xCore/3rdparty/linux/lib/libc.a(setlocale.o) (_nl_current_LC_ADDRESS)
C:\Projects\AADS\xCore/3rdparty/linux/lib/libc.a(lc-telephone.o)
                              C:\Projects\AADS\xCore/3rdparty/linux/lib/libc.a(setlocale.o) (_nl_current_LC_TELEPHONE)
C:\Projects\AADS\xCore/3rdparty/linux/lib/libc.a(lc-measurement.o)
                              C:\Projects\AADS\xCore/3rdparty/linux/lib/libc.a(setlocale.o) (_nl_current_LC_MEASUREMENT)
C:\Projects\AADS\xCore/3rdparty/linux/lib/libc.a(lc-identification.o)
                              C:\Projects\AADS\xCore/3rdparty/linux/lib/libc.a(setlocale.o) (_nl_current_LC_IDENTIFICATION)
C:\Projects\AADS\xCore/3rdparty/linux/lib/libc.a(lc-collate.o)
                              C:\Projects\AADS\xCore/3rdparty/linux/lib/libc.a(setlocale.o) (_nl_current_LC_COLLATE)
C:\Projects\AADS\xCore/3rdparty/linux/lib/libc.a(C-ctype.o)
                              C:\Projects\AADS\xCore/3rdparty/linux/lib/libc.a(wcsmbsload.o) (_nl_C_LC_CTYPE)
C:\Projects\AADS\xCore/3rdparty/linux/lib/libc.a(C-messages.o)
                              C:\Projects\AADS\xCore/3rdparty/linux/lib/libc.a(setlocale.o) (_nl_C_LC_MESSAGES)
C:\Projects\AADS\xCore/3rdparty/linux/lib/libc.a(C-monetary.o)
                              C:\Projects\AADS\xCore/3rdparty/linux/lib/libc.a(setlocale.o) (_nl_C_LC_MONETARY)
C:\Projects\AADS\xCore/3rdparty/linux/lib/libc.a(C-numeric.o)
                              C:\Projects\AADS\xCore/3rdparty/linux/lib/libc.a(setlocale.o) (_nl_C_LC_NUMERIC)
C:\Projects\AADS\xCore/3rdparty/linux/lib/libc.a(C-time.o)
                              C:\Projects\AADS\xCore/3rdparty/linux/lib/libc.a(setlocale.o) (_nl_C_LC_TIME)
C:\Projects\AADS\xCore/3rdparty/linux/lib/libc.a(C-paper.o)
                              C:\Projects\AADS\xCore/3rdparty/linux/lib/libc.a(setlocale.o) (_nl_C_LC_PAPER)
C:\Projects\AADS\xCore/3rdparty/linux/lib/libc.a(C-name.o)
                              C:\Projects\AADS\xCore/3rdparty/linux/lib/libc.a(setlocale.o) (_nl_C_LC_NAME)
C:\Projects\AADS\xCore/3rdparty/linux/lib/libc.a(C-address.o)
                              C:\Projects\AADS\xCore/3rdparty/linux/lib/libc.a(setlocale.o) (_nl_C_LC_ADDRESS)
C:\Projects\AADS\xCore/3rdparty/linux/lib/libc.a(C-telephone.o)
                              C:\Projects\AADS\xCore/3rdparty/linux/lib/libc.a(setlocale.o) (_nl_C_LC_TELEPHONE)
C:\Projects\AADS\xCore/3rdparty/linux/lib/libc.a(C-measurement.o)
                              C:\Projects\AADS\xCore/3rdparty/linux/lib/libc.a(setlocale.o) (_nl_C_LC_MEASUREMENT)
C:\Projects\AADS\xCore/3rdparty/linux/lib/libc.a(C-identification.o)
                              C:\Projects\AADS\xCore/3rdparty/linux/lib/libc.a(setlocale.o) (_nl_C_LC_IDENTIFICATION)
C:\Projects\AADS\xCore/3rdparty/linux/lib/libc.a(C-collate.o)
                              C:\Projects\AADS\xCore/3rdparty/linux/lib/libc.a(setlocale.o) (_nl_C_LC_COLLATE)
C:\Projects\AADS\xCore/3rdparty/linux/lib/libc.a(SYS_libc.o)
                              C:\Projects\AADS\xCore/3rdparty/linux/lib/libc.a(assert.o) (_libc_intl_domainname)
C:\Projects\AADS\xCore/3rdparty/linux/lib/libc.a(C_name.o)
                              C:\Projects\AADS\xCore/3rdparty/linux/lib/libc.a(wcsmbsload.o) (_nl_C_name)
C:\Projects\AADS\xCore/3rdparty/linux/lib/libc.a(ctype-info.o)
                              C:\Projects\AADS\xCore/3rdparty/linux/lib/libc.a(loadmsgcat.o) (__ctype_b)
C:\Projects\AADS\xCore/3rdparty/linux/lib/libc.a(setfpucw.o)
                              C:\Projects\AADS\xCore/3rdparty/linux/lib/libc.a(init-first.o) (__setfpucw)
C:\Projects\AADS\xCore/3rdparty/linux/lib/libc.a(fpu_control.o)
                              C:\Projects\AADS\xCore/3rdparty/linux/lib/libc.a(init-first.o) (__fpu_control)
C:\Projects\AADS\xCore/3rdparty/linux/lib/libc.a(bsd-_setjmp.o)
                              C:\Projects\AADS\xCore/3rdparty/linux/lib/libc.a(dl-error.o) (_setjmp)
C:\Projects\AADS\xCore/3rdparty/linux/lib/libc.a(longjmp.o)
                              C:\Projects\AADS\xCore/3rdparty/linux/lib/libc.a(dl-error.o) (longjmp)
C:\Projects\AADS\xCore/3rdparty/linux/lib/libc.a(__longjmp.o)
                              C:\Projects\AADS\xCore/3rdparty/linux/lib/libc.a(longjmp.o) (__longjmp)
C:\Projects\AADS\xCore/3rdparty/linux/lib/libc.a(jmp-unwind.o)
                              C:\Projects\AADS\xCore/3rdparty/linux/lib/libc.a(longjmp.o) (_longjmp_unwind)
C:\Projects\AADS\xCore/3rdparty/linux/lib/libc.a(raise.o)
                              C:\Projects\AADS\xCore/3rdparty/linux/lib/libc.a(abort.o) (raise)
C:\Projects\AADS\xCore/3rdparty/linux/lib/libc.a(sigaction.o)
                              C:\Projects\AADS\xCore/3rdparty/linux/lib/libc.a(abort.o) (__sigaction)
C:\Projects\AADS\xCore/3rdparty/linux/lib/libc.a(sigprocmask.o)
                              C:\Projects\AADS\xCore/3rdparty/linux/lib/libc.a(abort.o) (__sigprocmask)
C:\Projects\AADS\xCore/3rdparty/linux/lib/libc.a(kill.o)
                              C:\Projects\AADS\xCore/3rdparty/linux/lib/libc.a(raise.o) (__kill)
C:\Projects\AADS\xCore/3rdparty/linux/lib/libc.a(qsort.o)
                              C:\Projects\AADS\xCore/3rdparty/linux/lib/libc.a(msort.o) (_quicksort)
C:\Projects\AADS\xCore/3rdparty/linux/lib/libc.a(setenv.o)
                              C:\Projects\AADS\xCore/3rdparty/linux/lib/libc.a(dl-support.o) (unsetenv)
C:\Projects\AADS\xCore/3rdparty/linux/lib/libc.a(strtol.o)
                              C:\Projects\AADS\xCore/3rdparty/linux/lib/libc.a(malloc.o) (__strtol_internal)
C:\Projects\AADS\xCore/3rdparty/linux/lib/libc.a(itoa-digits.o)
                              C:\Projects\AADS\xCore/3rdparty/linux/lib/libc.a(dl-load.o) (_itoa_lower_digits)
C:\Projects\AADS\xCore/3rdparty/linux/lib/libc.a(vfprintf.o)
                              C:\Projects\AADS\xCore/3rdparty/linux/lib/libc.a(iovsprintf.o) (_IO_vfprintf)
C:\Projects\AADS\xCore/3rdparty/linux/lib/libc.a(printf_fp.o)
                              C:\Projects\AADS\xCore/3rdparty/linux/lib/libc.a(vfprintf.o) (__printf_fp)
C:\Projects\AADS\xCore/3rdparty/linux/lib/libc.a(reg-printf.o)
                              C:\Projects\AADS\xCore/3rdparty/linux/lib/libc.a(vfprintf.o) (__printf_function_table)
C:\Projects\AADS\xCore/3rdparty/linux/lib/libc.a(printf_fphex.o)
                              C:\Projects\AADS\xCore/3rdparty/linux/lib/libc.a(vfprintf.o) (__printf_fphex)
C:\Projects\AADS\xCore/3rdparty/linux/lib/libc.a(sscanf.o)
                              C:\Projects\AADS\xCore/3rdparty/linux/lib/libc.a(getsysstats.o) (sscanf)
C:\Projects\AADS\xCore/3rdparty/linux/lib/libc.a(lockfile.o)
                              C:\Projects\AADS\xCore/3rdparty/linux/lib/libc.a(iofclose.o) (_IO_flockfile)
C:\Projects\AADS\xCore/3rdparty/linux/lib/libc.a(filedoalloc.o)
                              C:\Projects\AADS\xCore/3rdparty/linux/lib/libc.a(fileops.o) (_IO_file_doallocate)
C:\Projects\AADS\xCore/3rdparty/linux/lib/libc.a(wfiledoalloc.o)
                              C:\Projects\AADS\xCore/3rdparty/linux/lib/libc.a(wfileops.o) (_IO_wfile_doallocate)
C:\Projects\AADS\xCore/3rdparty/linux/lib/libc.a(iogetdelim.o)
                              C:\Projects\AADS\xCore/3rdparty/linux/lib/libc.a(gconv_conf.o) (_IO_getdelim)
C:\Projects\AADS\xCore/3rdparty/linux/lib/libc.a(iogetline.o)
                              C:\Projects\AADS\xCore/3rdparty/linux/lib/libc.a(iofgets_u.o) (_IO_getline)
C:\Projects\AADS\xCore/3rdparty/linux/lib/libc.a(iopadn.o)
                              C:\Projects\AADS\xCore/3rdparty/linux/lib/libc.a(vfprintf.o) (_IO_padn)
C:\Projects\AADS\xCore/3rdparty/linux/lib/libc.a(iovsscanf.o)
                              C:\Projects\AADS\xCore/3rdparty/linux/lib/libc.a(sscanf.o) (_IO_vsscanf)
C:\Projects\AADS\xCore/3rdparty/linux/lib/libc.a(iowpadn.o)
                              C:\Projects\AADS\xCore/3rdparty/linux/lib/libc.a(printf_fp.o) (_IO_wpadn)
C:\Projects\AADS\xCore/3rdparty/linux/lib/libc.a(wgenops.o)
                              C:\Projects\AADS\xCore/3rdparty/linux/lib/libc.a(fileops.o) (_IO_wsetb)
C:\Projects\AADS\xCore/3rdparty/linux/lib/libc.a(iofwide.o)
                              C:\Projects\AADS\xCore/3rdparty/linux/lib/libc.a(fileops.o) (__libio_codecvt)
C:\Projects\AADS\xCore/3rdparty/linux/lib/libc.a(strcpy.o)
                              C:\Projects\AADS\xCore/3rdparty/linux/lib/libc.a(getcwd.o) (strcpy)
C:\Projects\AADS\xCore/3rdparty/linux/lib/libc.a(strndup.o)
                              C:\Projects\AADS\xCore/3rdparty/linux/lib/libc.a(findlocale.o) (__strndup)
C:\Projects\AADS\xCore/3rdparty/linux/lib/libc.a(_strerror.o)
                              C:\Projects\AADS\xCore/3rdparty/linux/lib/libc.a(dl-error.o) (__strerror_r)
C:\Projects\AADS\xCore/3rdparty/linux/lib/libc.a(strnlen.o)
                              C:\Projects\AADS\xCore/3rdparty/linux/lib/libc.a(vfprintf.o) (__strnlen)
C:\Projects\AADS\xCore/3rdparty/linux/lib/libc.a(strpbrk.o)
                              C:\Projects\AADS\xCore/3rdparty/linux/lib/libc.a(dl-load.o) (strpbrk)
C:\Projects\AADS\xCore/3rdparty/linux/lib/libc.a(memchr.o)
                              C:\Projects\AADS\xCore/3rdparty/linux/lib/libc.a(argz-stringify.o) (memchr)
C:\Projects\AADS\xCore/3rdparty/linux/lib/libc.a(argz-ctsep.o)
                              C:\Projects\AADS\xCore/3rdparty/linux/lib/libc.a(setlocale.o) (__argz_create_sep)
C:\Projects\AADS\xCore/3rdparty/linux/lib/libc.a(argz-addsep.o)
                              C:\Projects\AADS\xCore/3rdparty/linux/lib/libc.a(setlocale.o) (__argz_add_sep)
C:\Projects\AADS\xCore/3rdparty/linux/lib/libc.a(wcschr.o)
                              C:\Projects\AADS\xCore/3rdparty/linux/lib/libc.a(lc-time.o) (wcschr)
C:\Projects\AADS\xCore/3rdparty/linux/lib/libc.a(wmemcpy.o)
                              C:\Projects\AADS\xCore/3rdparty/linux/lib/libc.a(wgenops.o) (__wmemcpy)
C:\Projects\AADS\xCore/3rdparty/linux/lib/libc.a(wmemmove.o)
                              C:\Projects\AADS\xCore/3rdparty/linux/lib/libc.a(printf_fp.o) (__wmemmove)
C:\Projects\AADS\xCore/3rdparty/linux/lib/libc.a(mbrlen.o)
                              C:\Projects\AADS\xCore/3rdparty/linux/lib/libc.a(vfprintf.o) (__mbrlen)
C:\Projects\AADS\xCore/3rdparty/linux/lib/libc.a(mbrtowc.o)
                              C:\Projects\AADS\xCore/3rdparty/linux/lib/libc.a(mbrlen.o) (__mbrtowc)
C:\Projects\AADS\xCore/3rdparty/linux/lib/libc.a(wcrtomb.o)
                              C:\Projects\AADS\xCore/3rdparty/linux/lib/libc.a(vfprintf.o) (__wcrtomb)
C:\Projects\AADS\xCore/3rdparty/linux/lib/libc.a(wcsrtombs.o)
                              C:\Projects\AADS\xCore/3rdparty/linux/lib/libc.a(vfprintf.o) (__wcsrtombs)
C:\Projects\AADS\xCore/3rdparty/linux/lib/libc.a(mbsnrtowcs.o)
                              C:\Projects\AADS\xCore/3rdparty/linux/lib/libc.a(vfprintf.o) (__mbsnrtowcs)
C:\Projects\AADS\xCore/3rdparty/linux/lib/libc.a(wcsnlen.o)
                              C:\Projects\AADS\xCore/3rdparty/linux/lib/libc.a(wcsrtombs.o) (__wcsnlen)
C:\Projects\AADS\xCore/3rdparty/linux/lib/libc.a(tzset.o)
                              C:\Projects\AADS\xCore/3rdparty/linux/lib/libc.a(sysconf.o) (__tzname_max)
C:\Projects\AADS\xCore/3rdparty/linux/lib/libc.a(tzfile.o)
                              C:\Projects\AADS\xCore/3rdparty/linux/lib/libc.a(tzset.o) (__tzfile_read)
C:\Projects\AADS\xCore/3rdparty/linux/lib/libc.a(opendir.o)
                              C:\Projects\AADS\xCore/3rdparty/linux/lib/libc.a(getcwd.o) (__opendir)
C:\Projects\AADS\xCore/3rdparty/linux/lib/libc.a(closedir.o)
                              C:\Projects\AADS\xCore/3rdparty/linux/lib/libc.a(getcwd.o) (__closedir)
C:\Projects\AADS\xCore/3rdparty/linux/lib/libc.a(readdir.o)
                              C:\Projects\AADS\xCore/3rdparty/linux/lib/libc.a(getcwd.o) (__readdir)
C:\Projects\AADS\xCore/3rdparty/linux/lib/libc.a(getdents.o)
                              C:\Projects\AADS\xCore/3rdparty/linux/lib/libc.a(readdir.o) (__getdents)
C:\Projects\AADS\xCore/3rdparty/linux/lib/libc.a(nanosleep.o)
                              C:\Projects\AADS\xCore/3rdparty/linux/lib/libc.a(usleep.o) (__nanosleep)
C:\Projects\AADS\xCore/3rdparty/linux/lib/libc.a(getpid.o)
                              C:\Projects\AADS\xCore/3rdparty/linux/lib/libc.a(dl-misc.o) (__getpid)
C:\Projects\AADS\xCore/3rdparty/linux/lib/libc.a(getuid.o)
                              C:\Projects\AADS\xCore/3rdparty/linux/lib/libc.a(enbl-secure.o) (__getuid)
C:\Projects\AADS\xCore/3rdparty/linux/lib/libc.a(geteuid.o)
                              C:\Projects\AADS\xCore/3rdparty/linux/lib/libc.a(enbl-secure.o) (__geteuid)
C:\Projects\AADS\xCore/3rdparty/linux/lib/libc.a(getgid.o)
                              C:\Projects\AADS\xCore/3rdparty/linux/lib/libc.a(enbl-secure.o) (__getgid)
C:\Projects\AADS\xCore/3rdparty/linux/lib/libc.a(getegid.o)
                              C:\Projects\AADS\xCore/3rdparty/linux/lib/libc.a(enbl-secure.o) (__getegid)
C:\Projects\AADS\xCore/3rdparty/linux/lib/libc.a(getopt_init.o)
                              C:\Projects\AADS\xCore/3rdparty/linux/lib/libc.a(init-first.o) (__getopt_clean_environment)
C:\Projects\AADS\xCore/3rdparty/linux/lib/libc.a(lxstat.o)
                              C:\Projects\AADS\xCore/3rdparty/linux/lib/libc.a(getcwd.o) (__lxstat)
C:\Projects\AADS\xCore/3rdparty/linux/lib/libc.a(xstat64.o)
                              C:\Projects\AADS\xCore/3rdparty/linux/lib/libc.a(fxstat64.o) (__have_no_stat64)
C:\Projects\AADS\xCore/3rdparty/linux/lib/libc.a(lseek.o)
                              C:\Projects\AADS\xCore/3rdparty/linux/lib/libc.a(dl-load.o) (__lseek)
C:\Projects\AADS\xCore/3rdparty/linux/lib/libc.a(access.o)
                              C:\Projects\AADS\xCore/3rdparty/linux/lib/libc.a(dl-support.o) (__access)
C:\Projects\AADS\xCore/3rdparty/linux/lib/libc.a(isatty.o)
                              C:\Projects\AADS\xCore/3rdparty/linux/lib/libc.a(filedoalloc.o) (__isatty)
C:\Projects\AADS\xCore/3rdparty/linux/lib/libc.a(tcgetattr.o)
                              C:\Projects\AADS\xCore/3rdparty/linux/lib/libc.a(isatty.o) (__tcgetattr)
C:\Projects\AADS\xCore/3rdparty/linux/lib/libc.a(getrlimit.o)
                              C:\Projects\AADS\xCore/3rdparty/linux/lib/libc.a(getdtsz.o) (__getrlimit)
C:\Projects\AADS\xCore/3rdparty/linux/lib/libc.a(brk.o)
                              C:\Projects\AADS\xCore/3rdparty/linux/lib/libc.a(sbrk.o) (__curbrk)
C:\Projects\AADS\xCore/3rdparty/linux/lib/libc.a(ioctl.o)
                              C:\Projects\AADS\xCore/3rdparty/linux/lib/libc.a(tcgetattr.o) (__ioctl)
C:\Projects\AADS\xCore/3rdparty/linux/lib/libc.a(mntent_r.o)
                              C:\Projects\AADS\xCore/3rdparty/linux/lib/libc.a(getsysstats.o) (__setmntent)
C:\Projects\AADS\xCore/3rdparty/linux/lib/libc.a(init-misc.o)
                              C:\Projects\AADS\xCore/3rdparty/linux/lib/libc.a(dl-support.o) (__progname)
C:\Projects\AADS\xCore/3rdparty/linux/lib/libc.a(dl-profstub.o)
                              C:\Projects\AADS\xCore/3rdparty/linux/lib/libc.a(gconv.o) (_dl_mcount_wrapper_check)
C:\Projects\AADS\xCore/3rdparty/linux/lib/libc.a(dl-libc.o)
                              C:\Projects\AADS\xCore/3rdparty/linux/lib/libc.a(gconv_trans.o) (__libc_dlopen)
C:\Projects\AADS\xCore/3rdparty/linux/lib/libc.a(mb_cur_max.o)
                              C:\Projects\AADS\xCore/3rdparty/linux/lib/libc.a(vfprintf.o) (__ctype_get_mb_cur_max)
C:\Projects\AADS\xCore/3rdparty/linux/lib/libc.a(s_isinf.o)
                              C:\Projects\AADS\xCore/3rdparty/linux/lib/libc.a(printf_fp.o) (__isinf)
C:\Projects\AADS\xCore/3rdparty/linux/lib/libc.a(s_isinfl.o)
                              C:\Projects\AADS\xCore/3rdparty/linux/lib/libc.a(printf_fp.o) (__isinfl)
C:\Projects\AADS\xCore/3rdparty/linux/lib/libc.a(s_isnanl.o)
                              C:\Projects\AADS\xCore/3rdparty/linux/lib/libc.a(printf_fp.o) (__isnanl)
C:\Projects\AADS\xCore/3rdparty/linux/lib/libc.a(cmp.o)
                              C:\Projects\AADS\xCore/3rdparty/linux/lib/libc.a(printf_fp.o) (__mpn_cmp)
C:\Projects\AADS\xCore/3rdparty/linux/lib/libc.a(divrem.o)
                              C:\Projects\AADS\xCore/3rdparty/linux/lib/libc.a(printf_fp.o) (__mpn_divrem)
C:\Projects\AADS\xCore/3rdparty/linux/lib/libc.a(lshift.o)
                              C:\Projects\AADS\xCore/3rdparty/linux/lib/libc.a(printf_fp.o) (__mpn_lshift)
C:\Projects\AADS\xCore/3rdparty/linux/lib/libc.a(rshift.o)
                              C:\Projects\AADS\xCore/3rdparty/linux/lib/libc.a(printf_fp.o) (__mpn_rshift)
C:\Projects\AADS\xCore/3rdparty/linux/lib/libc.a(mul.o)
                              C:\Projects\AADS\xCore/3rdparty/linux/lib/libc.a(printf_fp.o) (__mpn_mul)
C:\Projects\AADS\xCore/3rdparty/linux/lib/libc.a(mul_1.o)
                              C:\Projects\AADS\xCore/3rdparty/linux/lib/libc.a(printf_fp.o) (__mpn_mul_1)
C:\Projects\AADS\xCore/3rdparty/linux/lib/libc.a(mul_n.o)
                              C:\Projects\AADS\xCore/3rdparty/linux/lib/libc.a(mul.o) (__mpn_impn_mul_n_basecase)
C:\Projects\AADS\xCore/3rdparty/linux/lib/libc.a(sub_n.o)
                              C:\Projects\AADS\xCore/3rdparty/linux/lib/libc.a(divrem.o) (__mpn_sub_n)
C:\Projects\AADS\xCore/3rdparty/linux/lib/libc.a(submul_1.o)
                              C:\Projects\AADS\xCore/3rdparty/linux/lib/libc.a(divrem.o) (__mpn_submul_1)
C:\Projects\AADS\xCore/3rdparty/linux/lib/libc.a(dbl2mpn.o)
                              C:\Projects\AADS\xCore/3rdparty/linux/lib/libc.a(printf_fp.o) (__mpn_extract_double)
C:\Projects\AADS\xCore/3rdparty/linux/lib/libc.a(ldbl2mpn.o)
                              C:\Projects\AADS\xCore/3rdparty/linux/lib/libc.a(printf_fp.o) (__mpn_extract_long_double)
C:\Projects\AADS\xCore/3rdparty/linux/lib/libc.a(fpioconst.o)
                              C:\Projects\AADS\xCore/3rdparty/linux/lib/libc.a(printf_fp.o) (__tens)
C:\Projects\AADS\xCore/3rdparty/linux/lib/libc.a(_itoa.o)
                              C:\Projects\AADS\xCore/3rdparty/linux/lib/libc.a(vfprintf.o) (_itoa)
C:\Projects\AADS\xCore/3rdparty/linux/lib/libc.a(_itowa.o)
                              C:\Projects\AADS\xCore/3rdparty/linux/lib/libc.a(printf_fphex.o) (_itowa)
C:\Projects\AADS\xCore/3rdparty/linux/lib/libc.a(itoa-udigits.o)
                              C:\Projects\AADS\xCore/3rdparty/linux/lib/libc.a(vfprintf.o) (_itoa_upper_digits)
C:\Projects\AADS\xCore/3rdparty/linux/lib/libc.a(itowa-digits.o)
                              C:\Projects\AADS\xCore/3rdparty/linux/lib/libc.a(printf_fphex.o) (_itowa_lower_digits)
C:\Projects\AADS\xCore/3rdparty/linux/lib/libc.a(vfscanf.o)
                              C:\Projects\AADS\xCore/3rdparty/linux/lib/libc.a(iovsscanf.o) (_IO_vfscanf)
C:\Projects\AADS\xCore/3rdparty/linux/lib/libc.a(errlist.o)
                              C:\Projects\AADS\xCore/3rdparty/linux/lib/libc.a(_strerror.o) (_sys_nerr)
C:\Projects\AADS\xCore/3rdparty/linux/lib/libc.a(iofread_u.o)
                              C:\Projects\AADS\xCore/3rdparty/linux/lib/libc.a(tzfile.o) (fread_unlocked)
C:\Projects\AADS\xCore/3rdparty/linux/lib/libc.a(wcslen.o)
                              C:\Projects\AADS\xCore/3rdparty/linux/lib/libc.a(wcsrtombs.o) (__wcslen)
C:\Projects\AADS\xCore/3rdparty/linux/lib/libc.a(mbsinit.o)
                              C:\Projects\AADS\xCore/3rdparty/linux/lib/libc.a(mbrtowc.o) (__mbsinit)
C:\Projects\AADS\xCore/3rdparty/linux/lib/libc.a(offtime.o)
                              C:\Projects\AADS\xCore/3rdparty/linux/lib/libc.a(tzset.o) (__offtime)
C:\Projects\AADS\xCore/3rdparty/linux/lib/libc.a(localtime.o)
                              C:\Projects\AADS\xCore/3rdparty/linux/lib/libc.a(tzset.o) (_tmbuf)
C:\Projects\AADS\xCore/3rdparty/linux/lib/libc.a(mktime.o)
                              C:\Projects\AADS\xCore/3rdparty/linux/lib/libc.a(tzset.o) (__mon_yday)
C:\Projects\AADS\xCore/3rdparty/linux/lib/libc.a(dl-profile.o)
                              C:\Projects\AADS\xCore/3rdparty/linux/lib/libc.a(dl-profstub.o) (_dl_mcount)
C:\Projects\AADS\xCore/3rdparty/linux/lib/libc.a(dl-open.o)
                              C:\Projects\AADS\xCore/3rdparty/linux/lib/libc.a(dl-libc.o) (_dl_open)
C:\Projects\AADS\xCore/3rdparty/linux/lib/libc.a(dl-close.o)
                              C:\Projects\AADS\xCore/3rdparty/linux/lib/libc.a(dl-libc.o) (_dl_close)
C:\Projects\AADS\xCore/3rdparty/linux/lib/libc.a(strtoll.o)
                              C:\Projects\AADS\xCore/3rdparty/linux/lib/libc.a(vfscanf.o) (__strtoll_internal)
C:\Projects\AADS\xCore/3rdparty/linux/lib/libc.a(strtoull.o)
                              C:\Projects\AADS\xCore/3rdparty/linux/lib/libc.a(vfscanf.o) (__strtoull_internal)
C:\Projects\AADS\xCore/3rdparty/linux/lib/libc.a(strtof.o)
                              C:\Projects\AADS\xCore/3rdparty/linux/lib/libc.a(vfscanf.o) (__strtof_internal)
C:\Projects\AADS\xCore/3rdparty/linux/lib/libc.a(strtod.o)
                              C:\Projects\AADS\xCore/3rdparty/linux/lib/libc.a(vfscanf.o) (__strtod_internal)
C:\Projects\AADS\xCore/3rdparty/linux/lib/libc.a(strtold.o)
                              C:\Projects\AADS\xCore/3rdparty/linux/lib/libc.a(vfscanf.o) (__strtold_internal)
C:\Projects\AADS\xCore/3rdparty/linux/lib/libc.a(add_n.o)
                              C:\Projects\AADS\xCore/3rdparty/linux/lib/libc.a(divrem.o) (__mpn_add_n)
C:\Projects\AADS\xCore/3rdparty/linux/lib/libc.a(addmul_1.o)
                              C:\Projects\AADS\xCore/3rdparty/linux/lib/libc.a(mul.o) (__mpn_addmul_1)
C:\Projects\AADS\xCore/3rdparty/linux/lib/libc.a(mpn2flt.o)
                              C:\Projects\AADS\xCore/3rdparty/linux/lib/libc.a(strtof.o) (__mpn_construct_float)
C:\Projects\AADS\xCore/3rdparty/linux/lib/libc.a(mpn2dbl.o)
                              C:\Projects\AADS\xCore/3rdparty/linux/lib/libc.a(strtod.o) (__mpn_construct_double)
C:\Projects\AADS\xCore/3rdparty/linux/lib/libc.a(mpn2ldbl.o)
                              C:\Projects\AADS\xCore/3rdparty/linux/lib/libc.a(strtold.o) (__mpn_construct_long_double)
C:\Projects\AADS\xCore/3rdparty/linux/lib/libc.a(strncpy.o)
                              C:\Projects\AADS\xCore/3rdparty/linux/lib/libc.a(dl-profile.o) (strncpy)
C:\Projects\AADS\xCore/3rdparty/linux/lib/libc.a(ffs.o)
                              C:\Projects\AADS\xCore/3rdparty/linux/lib/libc.a(dl-profile.o) (__ffs)
C:\Projects\AADS\xCore/3rdparty/linux/lib/libc.a(strncase.o)
                              C:\Projects\AADS\xCore/3rdparty/linux/lib/libc.a(strtof.o) (__strncasecmp)
C:\Projects\AADS\xCore/3rdparty/linux/lib/libc.a(profil.o)
                              C:\Projects\AADS\xCore/3rdparty/linux/lib/libc.a(dl-profile.o) (__profil)
C:\Projects\AADS\xCore/3rdparty/linux/lib/libc.a(prof-freq.o)
                              C:\Projects\AADS\xCore/3rdparty/linux/lib/libc.a(dl-profile.o) (__profile_frequency)
C:\Projects\AADS\xCore/3rdparty/linux/lib/libc.a(dl-reloc.o)
                              C:\Projects\AADS\xCore/3rdparty/linux/lib/libc.a(dl-open.o) (_dl_relocate_object)
C:\Projects\AADS\xCore/3rdparty/linux/lib/libc.a(dl-deps.o)
                              C:\Projects\AADS\xCore/3rdparty/linux/lib/libc.a(dl-open.o) (_dl_map_object_deps)
C:\Projects\AADS\xCore/3rdparty/linux/lib/libc.a(dl-runtime.o)
                              C:\Projects\AADS\xCore/3rdparty/linux/lib/libc.a(dl-reloc.o) (_dl_runtime_resolve)
C:\Projects\AADS\xCore/3rdparty/linux/lib/libc.a(dl-init.o)
                              C:\Projects\AADS\xCore/3rdparty/linux/lib/libc.a(dl-open.o) (_dl_init)
C:\Projects\AADS\xCore/3rdparty/linux/lib/libc.a(dl-debug.o)
                              C:\Projects\AADS\xCore/3rdparty/linux/lib/libc.a(dl-init.o) (_dl_debug_initialize)
C:\Projects\AADS\xCore/3rdparty/linux/lib/libc.a(dl-version.o)
                              C:\Projects\AADS\xCore/3rdparty/linux/lib/libc.a(dl-open.o) (_dl_check_map_versions)
C:\Projects\AADS\xCore/3rdparty/linux/lib/libc.a(sigfillset.o)
                              C:\Projects\AADS\xCore/3rdparty/linux/lib/libc.a(profil.o) (sigfillset)
C:\Projects\AADS\xCore/3rdparty/linux/lib/libc.a(setitimer.o)
                              C:\Projects\AADS\xCore/3rdparty/linux/lib/libc.a(profil.o) (__setitimer)
C:\Projects\AADS\xCore/3rdparty/linux/lib/libpthread.a(cancel.o)
                              \Projects\AADS\xCore\x_files\Linux-Debug\x_files.lib(x_threads.obj) (pthread_cancel)
C:\Projects\AADS\xCore/3rdparty/linux/lib/libpthread.a(manager.o)
                              C:\Projects\AADS\xCore/3rdparty/linux/lib/libpthread.a(cancel.o) (__pthread_handles)
C:\Projects\AADS\xCore/3rdparty/linux/lib/libpthread.a(pthread.o)
                              C:\Projects\AADS\xCore/3rdparty/linux/lib/libpthread.a(cancel.o) (__pthread_initial_thread)
C:\Projects\AADS\xCore/3rdparty/linux/lib/libpthread.a(specific.o)
                              C:\Projects\AADS\xCore/3rdparty/linux/lib/libc.a(no-tsd.o) (__libc_internal_tsd_set)
C:\Projects\AADS\xCore/3rdparty/linux/lib/libpthread.a(semaphore.o)
                              C:\Projects\AADS\xCore/3rdparty/linux/lib/libpthread.a(manager.o) (__new_sem_post)
C:\Projects\AADS\xCore/3rdparty/linux/lib/libpthread.a(spinlock.o)
                              C:\Projects\AADS\xCore/3rdparty/linux/lib/libpthread.a(cancel.o) (__pthread_lock)
C:\Projects\AADS\xCore/3rdparty/linux/lib/libpthread.a(wrapsyscall.o)
                              C:\Projects\AADS\xCore/3rdparty/linux/lib/libpthread.a(cancel.o) (__pthread_provide_wrappers)
C:\Projects\AADS\xCore/3rdparty/linux/lib/libpthread.a(events.o)
                              C:\Projects\AADS\xCore/3rdparty/linux/lib/libpthread.a(manager.o) (__linuxthreads_create_event)
\Projects\AADS\Support\netlib\Linux-Debug\NetLib.lib(NetCommon.obj)
                              .\Linux-debug\main.obj (net_Init(void))
\Projects\AADS\Support\netlib\Linux-Debug\NetLib.lib(netlib.obj)
                              \Projects\AADS\Support\netlib\Linux-Debug\NetLib.lib(NetCommon.obj) (net_LinuxInit(void))
C:\Projects\AADS\xCore/3rdparty/linux/lib/libgcc.a(_udivdi3.o)
                              C:\Projects\AADS\xCore/3rdparty/linux/lib/libc.a(strtoll.o) (__udivdi3)
C:\Projects\AADS\xCore/3rdparty/linux/lib/libgcc.a(_umoddi3.o)
                              C:\Projects\AADS\xCore/3rdparty/linux/lib/libc.a(strtoll.o) (__umoddi3)
C:\Projects\AADS\xCore/3rdparty/linux/lib/libc.a(setjmp.o)
                              C:\Projects\AADS\xCore/3rdparty/linux/lib/libpthread.a(pthread.o) (__sigsetjmp)
C:\Projects\AADS\xCore/3rdparty/linux/lib/libc.a(sigjmp.o)
                              C:\Projects\AADS\xCore/3rdparty/linux/lib/libc.a(setjmp.o) (__sigjmp_save)
C:\Projects\AADS\xCore/3rdparty/linux/lib/libc.a(sigsuspend.o)
                              C:\Projects\AADS\xCore/3rdparty/linux/lib/libpthread.a(pthread.o) (sigsuspend)
C:\Projects\AADS\xCore/3rdparty/linux/lib/libc.a(sigempty.o)
                              C:\Projects\AADS\xCore/3rdparty/linux/lib/libpthread.a(pthread.o) (sigemptyset)
C:\Projects\AADS\xCore/3rdparty/linux/lib/libc.a(sigaddset.o)
                              C:\Projects\AADS\xCore/3rdparty/linux/lib/libpthread.a(pthread.o) (sigaddset)
C:\Projects\AADS\xCore/3rdparty/linux/lib/libc.a(sigdelset.o)
                              C:\Projects\AADS\xCore/3rdparty/linux/lib/libpthread.a(manager.o) (sigdelset)
C:\Projects\AADS\xCore/3rdparty/linux/lib/libc.a(on_exit.o)
                              C:\Projects\AADS\xCore/3rdparty/linux/lib/libpthread.a(pthread.o) (__on_exit)
C:\Projects\AADS\xCore/3rdparty/linux/lib/libc.a(system.o)
                              C:\Projects\AADS\xCore/3rdparty/linux/lib/libpthread.a(wrapsyscall.o) (__libc_system)
C:\Projects\AADS\xCore/3rdparty/linux/lib/libc.a(strverscmp.o)
                              C:\Projects\AADS\xCore/3rdparty/linux/lib/libpthread.a(pthread.o) (__strverscmp)
C:\Projects\AADS\xCore/3rdparty/linux/lib/libc.a(strerror.o)
                              \Projects\AADS\Support\netlib\Linux-Debug\NetLib.lib(netlib.obj) (strerror)
C:\Projects\AADS\xCore/3rdparty/linux/lib/libc.a(uname.o)
                              C:\Projects\AADS\xCore/3rdparty/linux/lib/libpthread.a(pthread.o) (uname)
C:\Projects\AADS\xCore/3rdparty/linux/lib/libc.a(wait.o)
                              C:\Projects\AADS\xCore/3rdparty/linux/lib/libpthread.a(wrapsyscall.o) (__libc_wait)
C:\Projects\AADS\xCore/3rdparty/linux/lib/libc.a(waitpid.o)
                              C:\Projects\AADS\xCore/3rdparty/linux/lib/libpthread.a(manager.o) (__libc_waitpid)
C:\Projects\AADS\xCore/3rdparty/linux/lib/libc.a(wait4.o)
                              C:\Projects\AADS\xCore/3rdparty/linux/lib/libc.a(wait.o) (__wait4)
C:\Projects\AADS\xCore/3rdparty/linux/lib/libc.a(pause.o)
                              C:\Projects\AADS\xCore/3rdparty/linux/lib/libpthread.a(wrapsyscall.o) (__libc_pause)
C:\Projects\AADS\xCore/3rdparty/linux/lib/libc.a(fork.o)
                              C:\Projects\AADS\xCore/3rdparty/linux/lib/libc.a(system.o) (__fork)
C:\Projects\AADS\xCore/3rdparty/linux/lib/libc.a(execve.o)
                              C:\Projects\AADS\xCore/3rdparty/linux/lib/libc.a(system.o) (__execve)
C:\Projects\AADS\xCore/3rdparty/linux/lib/libc.a(getppid.o)
                              C:\Projects\AADS\xCore/3rdparty/linux/lib/libpthread.a(manager.o) (getppid)
C:\Projects\AADS\xCore/3rdparty/linux/lib/libc.a(sched_getp.o)
                              C:\Projects\AADS\xCore/3rdparty/linux/lib/libpthread.a(manager.o) (__sched_getparam)
C:\Projects\AADS\xCore/3rdparty/linux/lib/libc.a(sched_sets.o)
                              C:\Projects\AADS\xCore/3rdparty/linux/lib/libpthread.a(manager.o) (__sched_setscheduler)
C:\Projects\AADS\xCore/3rdparty/linux/lib/libc.a(sched_gets.o)
                              C:\Projects\AADS\xCore/3rdparty/linux/lib/libpthread.a(manager.o) (__sched_getscheduler)
C:\Projects\AADS\xCore/3rdparty/linux/lib/libc.a(sched_yield.o)
                              C:\Projects\AADS\xCore/3rdparty/linux/lib/libpthread.a(pthread.o) (sched_yield)
C:\Projects\AADS\xCore/3rdparty/linux/lib/libc.a(sched_primax.o)
                              C:\Projects\AADS\xCore/3rdparty/linux/lib/libpthread.a(manager.o) (__sched_get_priority_max)
C:\Projects\AADS\xCore/3rdparty/linux/lib/libc.a(pread.o)
                              C:\Projects\AADS\xCore/3rdparty/linux/lib/libpthread.a(wrapsyscall.o) (__libc_pread)
C:\Projects\AADS\xCore/3rdparty/linux/lib/libc.a(pwrite.o)
                              C:\Projects\AADS\xCore/3rdparty/linux/lib/libpthread.a(wrapsyscall.o) (__libc_pwrite)
C:\Projects\AADS\xCore/3rdparty/linux/lib/libc.a(pread64.o)
                              C:\Projects\AADS\xCore/3rdparty/linux/lib/libpthread.a(wrapsyscall.o) (__libc_pread64)
C:\Projects\AADS\xCore/3rdparty/linux/lib/libc.a(pwrite64.o)
                              C:\Projects\AADS\xCore/3rdparty/linux/lib/libpthread.a(wrapsyscall.o) (__libc_pwrite64)
C:\Projects\AADS\xCore/3rdparty/linux/lib/libc.a(pipe.o)
                              C:\Projects\AADS\xCore/3rdparty/linux/lib/libpthread.a(pthread.o) (pipe)
C:\Projects\AADS\xCore/3rdparty/linux/lib/libc.a(poll.o)
                              C:\Projects\AADS\xCore/3rdparty/linux/lib/libpthread.a(manager.o) (__poll)
C:\Projects\AADS\xCore/3rdparty/linux/lib/libc.a(tcdrain.o)
                              C:\Projects\AADS\xCore/3rdparty/linux/lib/libpthread.a(wrapsyscall.o) (__libc_tcdrain)
C:\Projects\AADS\xCore/3rdparty/linux/lib/libc.a(setrlimit.o)
                              C:\Projects\AADS\xCore/3rdparty/linux/lib/libpthread.a(pthread.o) (setrlimit)
C:\Projects\AADS\xCore/3rdparty/linux/lib/libc.a(gethostname.o)
                              \Projects\AADS\Support\netlib\Linux-Debug\NetLib.lib(netlib.obj) (gethostname)
C:\Projects\AADS\xCore/3rdparty/linux/lib/libc.a(select.o)
                              C:\Projects\AADS\xCore/3rdparty/linux/lib/libc.a(poll.o) (__select)
C:\Projects\AADS\xCore/3rdparty/linux/lib/libc.a(fsync.o)
                              C:\Projects\AADS\xCore/3rdparty/linux/lib/libpthread.a(wrapsyscall.o) (__libc_fsync)
C:\Projects\AADS\xCore/3rdparty/linux/lib/libc.a(msync.o)
                              C:\Projects\AADS\xCore/3rdparty/linux/lib/libpthread.a(wrapsyscall.o) (__libc_msync)
C:\Projects\AADS\xCore/3rdparty/linux/lib/libc.a(sysctl.o)
                              C:\Projects\AADS\xCore/3rdparty/linux/lib/libpthread.a(pthread.o) (__sysctl)
C:\Projects\AADS\xCore/3rdparty/linux/lib/libc.a(clone.o)
                              C:\Projects\AADS\xCore/3rdparty/linux/lib/libpthread.a(manager.o) (__clone)
C:\Projects\AADS\xCore/3rdparty/linux/lib/libc.a(accept.o)
                              C:\Projects\AADS\xCore/3rdparty/linux/lib/libpthread.a(wrapsyscall.o) (__libc_accept)
C:\Projects\AADS\xCore/3rdparty/linux/lib/libc.a(bind.o)
                              \Projects\AADS\Support\netlib\Linux-Debug\NetLib.lib(netlib.obj) (bind)
C:\Projects\AADS\xCore/3rdparty/linux/lib/libc.a(connect.o)
                              C:\Projects\AADS\xCore/3rdparty/linux/lib/libpthread.a(wrapsyscall.o) (__libc_connect)
C:\Projects\AADS\xCore/3rdparty/linux/lib/libc.a(recv.o)
                              C:\Projects\AADS\xCore/3rdparty/linux/lib/libpthread.a(wrapsyscall.o) (__libc_recv)
C:\Projects\AADS\xCore/3rdparty/linux/lib/libc.a(recvfrom.o)
                              C:\Projects\AADS\xCore/3rdparty/linux/lib/libpthread.a(wrapsyscall.o) (__libc_recvfrom)
C:\Projects\AADS\xCore/3rdparty/linux/lib/libc.a(recvmsg.o)
                              C:\Projects\AADS\xCore/3rdparty/linux/lib/libpthread.a(wrapsyscall.o) (__libc_recvmsg)
C:\Projects\AADS\xCore/3rdparty/linux/lib/libc.a(send.o)
                              C:\Projects\AADS\xCore/3rdparty/linux/lib/libpthread.a(wrapsyscall.o) (__libc_send)
C:\Projects\AADS\xCore/3rdparty/linux/lib/libc.a(sendmsg.o)
                              C:\Projects\AADS\xCore/3rdparty/linux/lib/libpthread.a(wrapsyscall.o) (__libc_sendmsg)
C:\Projects\AADS\xCore/3rdparty/linux/lib/libc.a(sendto.o)
                              C:\Projects\AADS\xCore/3rdparty/linux/lib/libpthread.a(wrapsyscall.o) (__libc_sendto)
C:\Projects\AADS\xCore/3rdparty/linux/lib/libc.a(setsockopt.o)
                              \Projects\AADS\Support\netlib\Linux-Debug\NetLib.lib(netlib.obj) (setsockopt)
C:\Projects\AADS\xCore/3rdparty/linux/lib/libc.a(socket.o)
                              \Projects\AADS\Support\netlib\Linux-Debug\NetLib.lib(netlib.obj) (socket)
C:\Projects\AADS\xCore/3rdparty/linux/lib/libc.a(res_libc.o)
                              C:\Projects\AADS\xCore/3rdparty/linux/lib/libpthread.a(pthread.o) (_res)
C:\Projects\AADS\xCore/3rdparty/linux/lib/libc.a(htonl.o)
                              \Projects\AADS\Support\netlib\Linux-Debug\NetLib.lib(netlib.obj) (htonl)
C:\Projects\AADS\xCore/3rdparty/linux/lib/libc.a(htons.o)
                              \Projects\AADS\Support\netlib\Linux-Debug\NetLib.lib(netlib.obj) (htons)
C:\Projects\AADS\xCore/3rdparty/linux/lib/libc.a(herrno.o)
                              C:\Projects\AADS\xCore/3rdparty/linux/lib/libpthread.a(pthread.o) (_h_errno)
C:\Projects\AADS\xCore/3rdparty/linux/lib/libc.a(gethstbyad.o)
                              \Projects\AADS\Support\netlib\Linux-Debug\NetLib.lib(netlib.obj) (gethostbyaddr)
C:\Projects\AADS\xCore/3rdparty/linux/lib/libc.a(gethstbyad_r.o)
                              C:\Projects\AADS\xCore/3rdparty/linux/lib/libc.a(gethstbyad.o) (__gethostbyaddr_r)
C:\Projects\AADS\xCore/3rdparty/linux/lib/libc.a(gethstbynm.o)
                              \Projects\AADS\Support\netlib\Linux-Debug\NetLib.lib(netlib.obj) (gethostbyname)
C:\Projects\AADS\xCore/3rdparty/linux/lib/libc.a(gethstbynm_r.o)
                              C:\Projects\AADS\xCore/3rdparty/linux/lib/libc.a(gethstbynm.o) (__gethostbyname_r)
C:\Projects\AADS\xCore/3rdparty/linux/lib/libc.a(in6_addr.o)
                              C:\Projects\AADS\xCore/3rdparty/linux/lib/libc.a(gethstbyad_r.o) (in6addr_any)
C:\Projects\AADS\xCore/3rdparty/linux/lib/libc.a(nscd_gethst_r.o)
                              C:\Projects\AADS\xCore/3rdparty/linux/lib/libc.a(gethstbynm_r.o) (__nscd_gethostbyname_r)
C:\Projects\AADS\xCore/3rdparty/linux/lib/libc.a(readv.o)
                              C:\Projects\AADS\xCore/3rdparty/linux/lib/libc.a(nscd_gethst_r.o) (__readv)
C:\Projects\AADS\xCore/3rdparty/linux/lib/libc.a(res_init.o)
                              C:\Projects\AADS\xCore/3rdparty/linux/lib/libc.a(gethstbyad_r.o) (__res_ninit)
C:\Projects\AADS\xCore/3rdparty/linux/lib/libc.a(res_hconf.o)
                              C:\Projects\AADS\xCore/3rdparty/linux/lib/libc.a(gethstbyad_r.o) (_res_hconf)
C:\Projects\AADS\xCore/3rdparty/linux/lib/libc.a(nsswitch.o)
                              C:\Projects\AADS\xCore/3rdparty/linux/lib/libc.a(gethstbyad_r.o) (__nss_next)
C:\Projects\AADS\xCore/3rdparty/linux/lib/libc.a(digits_dots.o)
                              C:\Projects\AADS\xCore/3rdparty/linux/lib/libc.a(gethstbynm.o) (__nss_hostname_digits_dots)
C:\Projects\AADS\xCore/3rdparty/linux/lib/libc.a(hosts-lookup.o)
                              C:\Projects\AADS\xCore/3rdparty/linux/lib/libc.a(gethstbyad_r.o) (__nss_hosts_lookup)
C:\Projects\AADS\xCore/3rdparty/linux/lib/libc.a(nscd_getgr_r.o)
                              C:\Projects\AADS\xCore/3rdparty/linux/lib/libc.a(nscd_gethst_r.o) (__nss_not_use_nscd_group)
C:\Projects\AADS\xCore/3rdparty/linux/lib/libc.a(snprintf.o)
                              C:\Projects\AADS\xCore/3rdparty/linux/lib/libc.a(nscd_getgr_r.o) (__snprintf)
C:\Projects\AADS\xCore/3rdparty/linux/lib/libc.a(getline.o)
                              C:\Projects\AADS\xCore/3rdparty/linux/lib/libc.a(nsswitch.o) (__getline)
C:\Projects\AADS\xCore/3rdparty/linux/lib/libc.a(vsnprintf.o)
                              C:\Projects\AADS\xCore/3rdparty/linux/lib/libc.a(snprintf.o) (_IO_vsnprintf)
C:\Projects\AADS\xCore/3rdparty/linux/lib/libc.a(libc_fatal.o)
                              C:\Projects\AADS\xCore/3rdparty/linux/lib/libc.a(nsswitch.o) (__libc_fatal)
C:\Projects\AADS\xCore/3rdparty/linux/lib/libc.a(strchrnul.o)
                              C:\Projects\AADS\xCore/3rdparty/linux/lib/libc.a(res_hconf.o) (__strchrnul)
C:\Projects\AADS\xCore/3rdparty/linux/lib/libc.a(writev.o)
                              C:\Projects\AADS\xCore/3rdparty/linux/lib/libc.a(nscd_getgr_r.o) (__writev)
C:\Projects\AADS\xCore/3rdparty/linux/lib/libc.a(opensock.o)
                              C:\Projects\AADS\xCore/3rdparty/linux/lib/libc.a(res_hconf.o) (__opensock)
C:\Projects\AADS\xCore/3rdparty/linux/lib/libc.a(inet_addr.o)
                              C:\Projects\AADS\xCore/3rdparty/linux/lib/libc.a(res_init.o) (__inet_aton)
C:\Projects\AADS\xCore/3rdparty/linux/lib/libc.a(inet_pton.o)
                              C:\Projects\AADS\xCore/3rdparty/linux/lib/libc.a(res_init.o) (inet_pton)

Allocating common symbols
Common symbol       size              file

__assert_program_name
                    0x4               C:\Projects\AADS\xCore/3rdparty/linux/lib/libc.a(assert.o)
__libc_argc         0x4               C:\Projects\AADS\xCore/3rdparty/linux/lib/libc.a(init-first.o)
__pthread_exit_code
                    0x4               C:\Projects\AADS\xCore/3rdparty/linux/lib/libpthread.a(pthread.o)
_dl_nloaded         0x4               C:\Projects\AADS\xCore/3rdparty/linux/lib/libc.a(dl-support.o)
tzstring_list       0x4               C:\Projects\AADS\xCore/3rdparty/linux/lib/libc.a(tzset.o)
__libc_stack_end    0x4               C:\Projects\AADS\xCore/3rdparty/linux/lib/libc.a(dl-support.o)
__pthread_manager_thread_bos
                    0x4               C:\Projects\AADS\xCore/3rdparty/linux/lib/libpthread.a(pthread.o)
_nl_domain_bindings
                    0x4               C:\Projects\AADS\xCore/3rdparty/linux/lib/libc.a(dcigettext.o)
__have_no_fcntl64   0x4               C:\Projects\AADS\xCore/3rdparty/linux/lib/libc.a(fcntl.o)
_dl_debug_symbols   0x4               C:\Projects\AADS\xCore/3rdparty/linux/lib/libc.a(dl-support.o)
_dl_initial_searchlist
                    0x10              C:\Projects\AADS\xCore/3rdparty/linux/lib/libc.a(dl-support.o)
__libc_tsd_MALLOC_data
                    0x4               C:\Projects\AADS\xCore/3rdparty/linux/lib/libc.a(malloc.o)
__gconv_modules_db  0x4               C:\Projects\AADS\xCore/3rdparty/linux/lib/libc.a(gconv_db.o)
_dl_platformlen     0x4               C:\Projects\AADS\xCore/3rdparty/linux/lib/libc.a(dl-support.o)
__have_no_new_getrlimit
                    0x4               C:\Projects\AADS\xCore/3rdparty/linux/lib/libc.a(getrlimit.o)
__pthread_initial_thread_bos
                    0x4               C:\Projects\AADS\xCore/3rdparty/linux/lib/libpthread.a(pthread.o)
_dl_debug_impcalls  0x4               C:\Projects\AADS\xCore/3rdparty/linux/lib/libc.a(dl-support.o)
_nl_msg_cat_cntr    0x4               C:\Projects\AADS\xCore/3rdparty/linux/lib/libc.a(loadmsgcat.o)
_dl_debug_versions  0x4               C:\Projects\AADS\xCore/3rdparty/linux/lib/libc.a(dl-support.o)
__have_no_getdents64
                    0x4               C:\Projects\AADS\xCore/3rdparty/linux/lib/libc.a(getdents.o)
_dl_profile         0x4               C:\Projects\AADS\xCore/3rdparty/linux/lib/libc.a(dl-support.o)
_dl_debug_bindings  0x4               C:\Projects\AADS\xCore/3rdparty/linux/lib/libc.a(dl-support.o)
_dl_global_scope_alloc
                    0x4               C:\Projects\AADS\xCore/3rdparty/linux/lib/libc.a(dl-deps.o)
__libc_setlocale_lock
                    0x18              C:\Projects\AADS\xCore/3rdparty/linux/lib/libc.a(setlocale.o)
_dl_bind_not        0x4               C:\Projects\AADS\xCore/3rdparty/linux/lib/libc.a(dl-support.o)
_dl_num_relocations
                    0x4               C:\Projects\AADS\xCore/3rdparty/linux/lib/libc.a(dl-lookup.o)
__gconv_max_path_elem_len
                    0x4               C:\Projects\AADS\xCore/3rdparty/linux/lib/libc.a(gconv_conf.o)
_dl_platform        0x4               C:\Projects\AADS\xCore/3rdparty/linux/lib/libc.a(dl-support.o)
__nss_hosts_database
                    0x4               C:\Projects\AADS\xCore/3rdparty/linux/lib/libc.a(hosts-lookup.o)
_dl_lazy            0x4               C:\Projects\AADS\xCore/3rdparty/linux/lib/libc.a(dl-support.o)
__pthread_nonstandard_stacks
                    0x4               C:\Projects\AADS\xCore/3rdparty/linux/lib/libpthread.a(manager.o)
_dl_debug_reloc     0x4               C:\Projects\AADS\xCore/3rdparty/linux/lib/libc.a(dl-support.o)
_res_hconf          0x30              C:\Projects\AADS\xCore/3rdparty/linux/lib/libc.a(res_hconf.o)
__tzname_cur_max    0x4               C:\Projects\AADS\xCore/3rdparty/linux/lib/libc.a(tzset.o)
_res                0x200             C:\Projects\AADS\xCore/3rdparty/linux/lib/libc.a(res_libc.o)
__pthread_smp_kernel
                    0x4               C:\Projects\AADS\xCore/3rdparty/linux/lib/libpthread.a(pthread.o)
__printf_arginfo_table
                    0x400             C:\Projects\AADS\xCore/3rdparty/linux/lib/libc.a(reg-printf.o)
__nss_not_use_nscd_hosts
                    0x4               C:\Projects\AADS\xCore/3rdparty/linux/lib/libc.a(nscd_gethst_r.o)
__have_no_stat64    0x4               C:\Projects\AADS\xCore/3rdparty/linux/lib/libc.a(xstat64.o)
_dl_origin_path     0x4               C:\Projects\AADS\xCore/3rdparty/linux/lib/libc.a(dl-support.o)
_dl_debug_files     0x4               C:\Projects\AADS\xCore/3rdparty/linux/lib/libc.a(dl-support.o)
_dl_clktck          0x4               C:\Projects\AADS\xCore/3rdparty/linux/lib/libc.a(dl-load.o)
__pthread_threads_events
                    0x8               C:\Projects\AADS\xCore/3rdparty/linux/lib/libpthread.a(manager.o)
_tmbuf              0x2c              C:\Projects\AADS\xCore/3rdparty/linux/lib/libc.a(localtime.o)
__pthread_last_event
                    0x4               C:\Projects\AADS\xCore/3rdparty/linux/lib/libpthread.a(manager.o)
__pthread_manager_reader
                    0x4               C:\Projects\AADS\xCore/3rdparty/linux/lib/libpthread.a(pthread.o)
__printf_function_table
                    0x4               C:\Projects\AADS\xCore/3rdparty/linux/lib/libc.a(reg-printf.o)
__gconv_path_elem   0x4               C:\Projects\AADS\xCore/3rdparty/linux/lib/libc.a(gconv_conf.o)
__pthread_exit_requested
                    0x4               C:\Projects\AADS\xCore/3rdparty/linux/lib/libpthread.a(pthread.o)
__pthread_manager_thread_tos
                    0x4               C:\Projects\AADS\xCore/3rdparty/linux/lib/libpthread.a(pthread.o)
_dl_init_all_dirs   0x4               C:\Projects\AADS\xCore/3rdparty/linux/lib/libc.a(dl-load.o)
__getopt_nonoption_flags
                    0x4               C:\Projects\AADS\xCore/3rdparty/linux/lib/libc.a(getopt_init.o)
__libc_missing_rt_sigs
                    0x4               C:\Projects\AADS\xCore/3rdparty/linux/lib/libc.a(sigaction.o)
_dl_debug_libs      0x4               C:\Projects\AADS\xCore/3rdparty/linux/lib/libc.a(dl-support.o)
_dl_verbose         0x4               C:\Projects\AADS\xCore/3rdparty/linux/lib/libc.a(dl-support.o)
_dl_loaded          0x4               C:\Projects\AADS\xCore/3rdparty/linux/lib/libc.a(dl-support.o)
_dl_profile_map     0x4               C:\Projects\AADS\xCore/3rdparty/linux/lib/libc.a(dl-support.o)
__use_tzfile        0x4               C:\Projects\AADS\xCore/3rdparty/linux/lib/libc.a(tzfile.o)
_dl_initfirst       0x4               C:\Projects\AADS\xCore/3rdparty/linux/lib/libc.a(dl-load.o)
__libc_argv         0x4               C:\Projects\AADS\xCore/3rdparty/linux/lib/libc.a(init-first.o)
__nss_not_use_nscd_group
                    0x4               C:\Projects\AADS\xCore/3rdparty/linux/lib/libc.a(nscd_getgr_r.o)
_dl_all_dirs        0x4               C:\Projects\AADS\xCore/3rdparty/linux/lib/libc.a(dl-load.o)
__gconv_alias_db    0x4               C:\Projects\AADS\xCore/3rdparty/linux/lib/libc.a(gconv_db.o)
_r_debug            0x14              C:\Projects\AADS\xCore/3rdparty/linux/lib/libc.a(dl-debug.o)
__pthread_threads_debug
                    0x4               C:\Projects\AADS\xCore/3rdparty/linux/lib/libpthread.a(manager.o)
__pthread_max_stacksize
                    0x4               C:\Projects\AADS\xCore/3rdparty/linux/lib/libpthread.a(pthread.o)
_dl_inhibit_rpath   0x4               C:\Projects\AADS\xCore/3rdparty/linux/lib/libc.a(dl-support.o)
_dl_search_paths    0x4               C:\Projects\AADS\xCore/3rdparty/linux/lib/libc.a(dl-support.o)
_dl_pagesize        0x4               C:\Projects\AADS\xCore/3rdparty/linux/lib/libc.a(dl-load.o)

Memory Configuration

Name             Origin             Length             Attributes
*default*        0x00000000         0xffffffff

Linker script and memory map

LOAD .\Linux-debug\bytestream.obj
START GROUP
LOAD \Projects\AADS\xCore\Entropy\Linux-Debug\Entropy.lib
LOAD \Projects\AADS\xCore\x_files\Linux-Debug\x_files.lib
LOAD \Projects\AADS\Support\netlib\Linux-Debug\NetLib.lib
LOAD C:\Projects\AADS\xCore/3rdparty/linux/lib/crti.o
LOAD C:\Projects\AADS\xCore/3rdparty/linux/lib/crtbegin.o
LOAD C:\Projects\AADS\xCore/3rdparty/linux/lib/crtend.o
LOAD C:\Projects\AADS\xCore/3rdparty/linux/lib/crtn.o
LOAD C:\Projects\AADS\xCore/3rdparty/linux/lib/crt1.o
LOAD C:\Projects\AADS\xCore/3rdparty/linux/lib/libm.a
LOAD C:\Projects\AADS\xCore/3rdparty/linux/lib/libstdc++.a
LOAD C:\Projects\AADS\xCore/3rdparty/linux/lib/libgcc.a
LOAD C:\Projects\AADS\xCore/3rdparty/linux/lib/libc.a
LOAD C:\Projects\AADS\xCore/3rdparty/linux/lib/libpthread.a
LOAD .\Linux-debug\main.obj
END GROUP
                0x08048094                . = (0x8048000 + SIZEOF_HEADERS)

.interp
 *(.interp)

.note.ABI-tag   0x08048094       0x20
 .note.ABI-tag  0x08048094       0x20 C:\Projects\AADS\xCore/3rdparty/linux/lib/crt1.o

.hash
 *(.hash)

.dynsym
 *(.dynsym)

.dynstr
 *(.dynstr)

.gnu.version
 *(.gnu.version)

.gnu.version_d
 *(.gnu.version_d)

.gnu.version_r
 *(.gnu.version_r)

.rel.init
 *(.rel.init)

.rela.init
 *(.rela.init)

.rel.text
 *(.rel.text)
 *(.rel.text.*)
 *(.rel.gnu.linkonce.t.*)

.rela.text
 *(.rela.text)
 *(.rela.text.*)
 *(.rela.gnu.linkonce.t.*)

.rel.fini
 *(.rel.fini)

.rela.fini
 *(.rela.fini)

.rel.rodata
 *(.rel.rodata)
 *(.rel.rodata.*)
 *(.rel.gnu.linkonce.r.*)

.rela.rodata
 *(.rela.rodata)
 *(.rela.rodata.*)
 *(.rela.gnu.linkonce.r.*)

.rel.data
 *(.rel.data)
 *(.rel.data.*)
 *(.rel.gnu.linkonce.d.*)

.rela.data
 *(.rela.data)
 *(.rela.data.*)
 *(.rela.gnu.linkonce.d.*)

.rel.ctors
 *(.rel.ctors)

.rela.ctors
 *(.rela.ctors)

.rel.dtors
 *(.rel.dtors)

.rela.dtors
 *(.rela.dtors)

.rel.got
 *(.rel.got)

.rel.dyn

.rela.got
 *(.rela.got)

.rel.sdata
 *(.rel.sdata)
 *(.rel.sdata.*)
 *(.rel.gnu.linkonce.s.*)

.rela.sdata
 *(.rela.sdata)
 *(.rela.sdata.*)
 *(.rela.gnu.linkonce.s.*)

.rel.sbss
 *(.rel.sbss)
 *(.rel.sbss.*)
 *(.rel.gnu.linkonce.sb.*)

.rela.sbss
 *(.rela.sbss)
 *(.rela.sbss.*)
 *(.rel.gnu.linkonce.sb.*)

.rel.sdata2
 *(.rel.sdata2)
 *(.rel.sdata2.*)
 *(.rel.gnu.linkonce.s2.*)

.rela.sdata2
 *(.rela.sdata2)
 *(.rela.sdata2.*)
 *(.rela.gnu.linkonce.s2.*)

.rel.sbss2
 *(.rel.sbss2)
 *(.rel.sbss2.*)
 *(.rel.gnu.linkonce.sb2.*)

.rela.sbss2
 *(.rela.sbss2)
 *(.rela.sbss2.*)
 *(.rela.gnu.linkonce.sb2.*)

.rel.bss
 *(.rel.bss)
 *(.rel.bss.*)
 *(.rel.gnu.linkonce.b.*)

.rela.bss
 *(.rela.bss)
 *(.rela.bss.*)
 *(.rela.gnu.linkonce.b.*)

.rel.plt
 *(.rel.plt)

.rela.plt
 *(.rela.plt)

.init           0x080480b4       0x25
 *(.init)
 .init          0x080480b4       0x18 C:\Projects\AADS\xCore/3rdparty/linux/lib/crti.o
                0x080480b4                _init
 .init          0x080480cc        0x5 C:\Projects\AADS\xCore/3rdparty/linux/lib/crtbegin.o
 .init          0x080480d1        0x5 C:\Projects\AADS\xCore/3rdparty/linux/lib/crtend.o
 .init          0x080480d6        0x3 C:\Projects\AADS\xCore/3rdparty/linux/lib/crtn.o

.plt
 *(.plt)

.text           0x080480e0    0x5b71f
 *(.text)
 .text          0x080480e0      0x534 .\Linux-debug\bytestream.obj
                0x0804819c                bytestream::GetLong(void)
                0x08048150                bytestream::Init(unsigned char *, int)
                0x08048288                bytestream::GetWords(short *, int)
                0x080482c8                bytestream::GetByte(void)
                0x080480e0                bytestream::bytestream(void)
                0x08048450                bytestream::PutByte(unsigned char)
                0x08048234                bytestream::GetNetWord(void)
                0x080481e0                bytestream::GetWord(void)
                0x08048484                bytestream::PutBytes(unsigned char const *, int)
                0x08048524                bytestream::GetWideString(unsigned short *)
                0x0804833c                bytestream::PutLong(int)
                0x08048174                bytestream::Init(void)
                0x080484e0                bytestream::GetString(char *)
                0x08048418                bytestream::PutWords(short const *, int)
                0x080484cc                bytestream::GetBytesUsed(void)
                0x080483cc                bytestream::PutNetWord(short)
                0x0804856c                bytestream::PutString(char const *)
                0x080484bc                bytestream::GetDataPtr(void)
                0x080485c0                bytestream::PutWideString(unsigned short const *)
                0x08048380                bytestream::PutWord(short)
                0x08048300                bytestream::GetBytes(unsigned char *, int)
                0x08048118                bytestream::~bytestream(void)
 .text          0x08048614     0x3714 \Projects\AADS\xCore\x_files\Linux-Debug\x_files.lib(x_plus.obj)
                0x0804a60c                x_wstrncat(unsigned short *, unsigned short const *, int)
                0x0804948c                x_strlen(char const *)
                0x0804a784                x_wstrcmp(unsigned short const *, unsigned short const *)
                0x0804988c                x_strcat(char *, char const *)
                0x08048c54                x_bsearch(void const *, void const *, int, int, int (*)(void const *, void const *))
                0x0804b57c                x_atoi(char const *)
                0x080491d4                random::irand(int, int)
                0x08048c8c                x_bsearch(void const *, void const *, int, int, int (*)(void const *, void const *), void *&)
                0x08049140                x_frand(float, float)
                0x0804a9ec                x_wstrstr(unsigned short const *, unsigned short const *)
                0x0804b53c                x_toupper(int)
                0x08049e84                x_strstr(char const *, char const *)
                0x0804b55c                x_tolower(int)
                0x080490f0                x_rand(void)
                0x0804919c                random::srand(int)
                0x0804ab24                x_memcpy(void *, void const *, int)
                0x08049300                random::v2(float, float, float, float)
                0x08049fa8                x_strtoupper(char *)
                0x08049f48                x_strrchr(char const *, int)
                0x08049174                random::random(void)
                0x08049268                random::frand(float, float)
                0x0804a26c                x_strdup(unsigned short const *)
                0x0804acd8                x_memmove(void *, void const *, int)
                0x0804bb50                x_makepath(char *, char const *, char const *, char const *, char const *)
                0x0804b174                x_memchr(void *, int, int)
                0x08049188                random::random(int)
                0x08049408                random::color(unsigned char)
                0x08049374                random::v3(float, float, float, float, float, float)
                0x0804a17c                x_wstrcpy(unsigned short *, unsigned short const *)
                0x080491ac                random::rand(void)
                0x0804a504                x_wstrcat(unsigned short *, unsigned short const *)
                0x08049114                x_irand(int, int)
                0x0804aa78                x_wstrchr(unsigned short const *, int)
                0x0804a384                x_wstrncpy(unsigned short *, unsigned short const *, int)
                0x080490cc                x_srand(int)
                0x0804b000                x_memset(void *, int, int)
                0x08049f08                x_strchr(char const *, int)
                0x0804b93c                x_splitpath(char const *, char *, char *, char *, char *)
                0x0804b428                x_chksum(void const *, int)
                0x08049b04                x_strcmp(char const *, char const *)
                0x08049c00                x_strncmp(char const *, char const *, int)
                0x08049518                x_strcpy(char *, char const *)
                0x0804aabc                x_wstrrchr(unsigned short const *, int)
                0x08049718                x_strncpy(char *, char const *, int)
                0x0804a048                x_strtolower(char *)
                0x0804a0e8                x_wstrlen(unsigned short const *)
                0x08048614                x_qsort(void const *, int, int, int (*)(void const *, void const *))
                0x08049990                x_strncat(char *, char const *, int)
                0x0804b26c                x_memcmp(void const *, void const *, int)
                0x08049604                x_strdup(char const *)
                0x08049d60                x_stricmp(char const *, char const *)
                0x0804a884                x_wstrncmp(unsigned short const *, unsigned short const *, int)
                0x0804b67c                x_atof(char const *)
 .text          0x0804bd28     0x136c \Projects\AADS\xCore\x_files\Linux-Debug\x_files.lib(x_memory.obj)
                0x0804c87c                x_MemAddMark(char const *)
                0x0804c51c                x_msize(void *)
                0x0804d068                x_malloctop(int)
                0x0804c7c8                operator new [](unsigned int, char *, int)
                0x0804c80c                operator delete(void *, char *, int)
                0x0804c968                x_MemDump(void)
                0x0804bf98                x_debug_malloc(int, char const *, int)
                0x0804bdc8                x_MemKill(void)
                0x0804c984                x_MemDump(char const *)
                0x0804c784                operator new(unsigned int, char *, int)
                0x0804c934                x_MemClearMarks(void)
                0x0804ce9c                x_MemSanity(void)
                0x0804c294                x_realloc(void *, int)
                0x0804c844                operator delete [](void *, char *, int)
                0x0804c6d4                __builtin_vec_new
                0x0804bdec                x_free(void *)
                0x0804c74c                __builtin_vec_delete
                0x0804bd28                x_MemInit(void)
                0x0804c714                __builtin_delete
                0x0804c694                __builtin_new
 .text          0x0804d094      0x408 \Projects\AADS\xCore\x_files\Linux-Debug\x_files.lib(x_debug.obj)
                0x0804d278                x_DebugSetCrashFunction(void (*)(char *, int))
                0x0804d1b0                x_DebugLog(char const *,...)
                0x0804d30c                x_GetRTFHandler(void)
                0x0804d23c                x_DebugSetVersionString(char const *)
                0x0804d28c                x_DebugGetCrashFunction(void)
                0x0804d2e8                x_SetRTFHandler(int (*)(char const *, int, char const *, char const *))
                0x0804d2a0                RTFHandler(char const *, int, char const *, char const *)
                0x0804d264                x_DebugGetVersionString(void)
                0x0804d0b8                x_DebugMsg(char const *,...)
                0x0804d320                x_SetLogHandler(void (*)(char const *))
 .text          0x0804d49c      0x8ee \Projects\AADS\xCore\x_files\Linux-Debug\x_files.lib(x_time.obj)
                0x0804d4f0                x_TimeKill(void)
                0x0804d4fc                x_GetTime(void)
                0x0804d730                xtimer::StopMs(void)
                0x0804d6b4                xtimer::Reset(void)
                0x0804db48                xtimer::TripMs(void)
                0x0804d608                x_TicksToSec(long long)
                0x0804d49c                x_TimeInit(void)
                0x0804dab4                xtimer::Trip(void)
                0x0804dd5c                xtimer::GetAverageMs(void) const
                0x0804d7ec                xtimer::StopSec(void)
                0x0804d578                x_TicksToMs(long long)
                0x0804d560                x_GetTicksPerMs(void)
                0x0804d6e8                xtimer::Stop(void)
                0x0804d624                x_GetTimeSec(void)
                0x0804d9dc                xtimer::ReadSec(void) const
                0x0804dc48                xtimer::TripSec(void)
                0x0804d8a8                xtimer::Read(void) const
                0x0804d904                xtimer::ReadMs(void) const
                0x0804d64c                xtimer::xtimer(void)
                0x0804dd48                xtimer::GetNSamples(void) const
                0x0804d684                xtimer::Start(void)
 *fill*         0x0804dd8a        0x2 9090
 .text          0x0804dd8c     0x101b \Projects\AADS\xCore\x_files\Linux-Debug\x_files.lib(x_threads.obj)
                0x0804dd8c                x_InitThreads(void)
                0x0804ed88                xprof_Enable(void)
                0x0804e47c                xthread::Suspend(int, xthread::state)
                0x0804e708                xthreadlist::Link(xthread *)
                0x0804eaa4                x_DelayThread(int)
                0x0804eca8                x_BeginAtomic(void)
                0x0804eca0                xthread::DumpThreads(void)
                0x0804eb74                x_DumpThreads(void)
                0x0804e628                xthread::SetFormatBufferSize(int)
                0x0804ed04                x_EndAtomic(void)
                0x0804df1c                x_KillThreads(void)
                0x0804e8e4                xthreadlist::Unlink(xthread *)
                0x0804ed98                xprof_SetSampleRate(int)
                0x0804e604                xthread::Unlink(xthreadlist &)
                0x0804eb68                xthread::DumpState(void)
                0x0804ea70                xthreadlist::UnlinkFirst(void)
                0x0804e384                xthread::~xthread(void)
                0x0804e588                xthread::Link(void)
                0x0804e010                xthread::xthread(int)
                0x0804e5b4                xthread::Unlink(void)
                0x0804e500                xthread::Resume(int)
                0x0804ed90                xprof_Disable(void)
                0x0804eb7c                x_GetCurrentThread(void)
                0x0804e690                xthreadlist::~xthreadlist(void)
                0x0804e674                xthreadlist::xthreadlist(void)
                0x0804ec30                x_WatchdogReset(void)
                0x0804eb50                x_CheckThreads(int)
                0x0804e1e0                xthread::xthread(void (*)(void), char const *, int, int)
                0x0804e5e0                xthread::Link(xthreadlist &)
                0x0804eda0                xprof_Flush(void)
                0x0804e6bc                xthreadlist::Find(int)
 *fill*         0x0804eda7        0x1 9090
 .text          0x0804eda8     0x630f \Projects\AADS\xCore\x_files\Linux-Debug\x_files.lib(x_string.obj)
                0x0804f0b8                xfs::~xfs(void)
                0x08051800                operator<(xstring const &, xstring const &)
                0x08051e54                xstring::DumpHex(void) const
                0x08054120                operator+(unsigned short const *, xwstring const &)
                0x080544f0                operator==(unsigned short const *, xwstring const &)
                0x08051fcc                xstring::LoadFile(char const *)
                0x080530cc                xwstring::Insert(int, unsigned short const *)
                0x08051204                xstring::operator+=(char const *)
                0x08054f18                xwstring::DumpHex(void) const
                0x080542c0                xwstring::operator+=(unsigned short)
                0x08050d24                xstring::operator=(xstring const &)
                0x0804f024                xfs::xfs(char const *,...)
                0x080541f0                operator+(xwstring const &, xwstring const &)
                0x08054dd8                operator>=(unsigned short const *, xwstring const &)
                0x0804f47c                xstring::xstring(xstring const &)
                0x0804f0a8                xfs::operator char const *(void)
                0x08051dd8                xstring::Dump(int) const
                0x08050414                xstring::Format(char const *,...)
                0x0804f0f0                xstring::EnsureCapacity(int)
                0x08053e58                xwstring::operator=(xstring const &)
                0x08053630                xwstring::Find(unsigned short, int) const
                0x0805094c                xstring::Find(char const *, int) const
                0x0804f6d4                xstring::Clear(void)
                0x08050510                xstring::FormatV(char const *, char *)
                0x080545b4                operator==(xwstring const &, xwstring const &)
                0x08051694                operator!=(xstring const &, xstring const &)
                0x08052458                xwstring::xwstring(unsigned short const *)
                0x0804f568                xstring::xstring(xwstring const &)
                0x08050244                xstring::Delete(int, int)
                0x08050604                xstring::AddFormat(char const *,...)
                0x080548b8                operator<(unsigned short const *, xwstring const &)
                0x08051710                operator<(xstring const &, char const *)
                0x0804fa7c                xstring::Left(int) const
                0x08054a6c                operator>(unsigned short const *, xwstring const &)
                0x08053c34                xwstring::SaveFile(char const *) const
                0x08052314                xwstring::xwstring(void)
                0x080546f8                operator!=(unsigned short const *, xwstring const &)
                0x08053d54                xwstring::operator=(unsigned short)
                0x08050ccc                xstring::operator=(char const *)
                0x08054050                operator+(xwstring const &, unsigned short const *)
                0x08050830                xstring::Find(char, int) const
                0x08052410                xwstring::xwstring(unsigned short)
                0x0804fbb4                xstring::Right(int) const
                0x0805101c                operator+(char const *, xstring const &)
                0x08053290                xwstring::Insert(int, xwstring const &)
                0x08052e38                xwstring::Right(int) const
                0x08050090                xstring::Insert(int, xstring const &)
                0x0805442c                operator==(xwstring const &, unsigned short const *)
                0x08054324                xwstring::operator+=(unsigned short const *)
                0x080521b0                xwstring::EnsureCapacity(int)
                0x08051b64                operator<=(xstring const &, xstring const &)
                0x08054930                operator<(xwstring const &, xwstring const &)
                0x080514fc                operator!=(xstring const &, char const *)
                0x08052f8c                xwstring::Insert(int, unsigned short)
                0x08052818                xwstring::FreeExtra(void)
                0x0804fd58                xstring::MakeLower(void)
                0x08051280                xstring::operator+=(xstring const &)
                0x0804f884                xstring::Mid(int, int) const
                0x08054ae8                operator>(xwstring const &, xwstring const &)
                0x08053d9c                xwstring::operator=(unsigned short const *)
                0x0804fcfc                xstring::MakeUpper(void)
                0x08052598                xwstring::xwstring(char const *)
                0x08052344                xwstring::xwstring(int)
                0x0804f228                xstring::xstring(int)
                0x08054c24                operator<=(unsigned short const *, xwstring const &)
                0x08053924                xwstring::Find(xwstring const &, int) const
                0x0804f6f0                xstring::FreeExtra(void)
                0x08053efc                operator+(xwstring const &, unsigned short)
                0x08054bac                operator<=(xwstring const &, unsigned short const *)
                0x08054840                operator<(xwstring const &, unsigned short const *)
                0x0804fee0                xstring::Insert(int, char const *)
                0x080528d8                xwstring::GetHashKey(int, int) const
                0x0804f7ac                xstring::IndexToRowCol(int, int &, int &) const
                0x08051c20                operator>=(xstring const &, char const *)
                0x080519b4                operator>(xstring const &, xstring const &)
                0x08051d18                operator>=(xstring const &, xstring const &)
                0x08053454                xwstring::Delete(int, int)
                0x08051aec                operator<=(char const *, xstring const &)
                0x0805071c                xstring::AddFormatV(char const *, char *)
                0x08052cfc                xwstring::Left(int) const
                0x08051a74                operator<=(xstring const &, char const *)
                0x0804fdb4                xstring::Insert(int, char)
                0x08054e54                operator>=(xwstring const &, xwstring const &)
                0x080527b0                xwstring::~xwstring(void)
                0x08051788                operator<(char const *, xstring const &)
                0x0804f1f8                xstring::xstring(void)
                0x0804f33c                xstring::xstring(char const *)
                0x0804f2f0                xstring::xstring(char)
                0x08050c88                xstring::operator=(char)
                0x08051300                operator==(xstring const &, char const *)
                0x080518bc                operator>(xstring const &, char const *)
                0x080527fc                xwstring::Clear(void)
                0x080515c8                operator!=(char const *, xstring const &)
                0x08053760                xwstring::Find(unsigned short const *, int) const
                0x08051938                operator>(char const *, xstring const &)
                0x0805462c                operator!=(xwstring const &, unsigned short const *)
                0x08050d88                xstring::operator=(xwstring const &)
                0x08053ac4                xwstring::LoadFile(char const *)
                0x08054d5c                operator>=(xwstring const &, unsigned short const *)
                0x080549f0                operator>(xwstring const &, unsigned short const *)
                0x080543a8                xwstring::operator+=(xwstring const &)
                0x08050e18                operator+(xstring const &, char)
                0x0804efec                xvfs::~xvfs(void)
                0x080513c4                operator==(char const *, xstring const &)
                0x080510e0                operator+(xstring const &, xstring const &)
                0x08050f58                operator+(xstring const &, char const *)
                0x08053df4                xwstring::operator=(xwstring const &)
                0x08051488                operator==(xstring const &, xstring const &)
                0x080547c4                operator!=(xwstring const &, xwstring const &)
                0x08050afc                xstring::Find(xstring const &, int) const
                0x08050ec0                operator+(char, xstring const &)
                0x08054c9c                operator<=(xwstring const &, xwstring const &)
                0x0804efdc                xvfs::operator char const *(void)
                0x08053fb0                operator+(unsigned short, xwstring const &)
                0x08051c9c                operator>=(char const *, xstring const &)
                0x080511a8                xstring::operator+=(char)
                0x0804ef5c                xvfs::xvfs(char const *, char *)
                0x0804f688                xstring::~xstring(void)
                0x08052af8                xwstring::Mid(int, int) const
                0x08052074                xstring::SaveFile(char const *) const
                0x080526bc                xwstring::xwstring(xwstring const &)
 *fill*         0x080550b7        0x1 9090
 .text          0x080550b8      0xea5 \Projects\AADS\xCore\x_files\Linux-Debug\x_files.lib(x_stdio.obj)
                0x08055cf8                ansi_Open(char const *, char const *)
                0x08055db0                ansi_Tell(unsigned int *)
                0x08055690                x_fwrite(void const *, int, int, unsigned int *)
                0x0805522c                x_printfxy(int, int, char const *,...)
                0x0805517c                x_SetPrintHook(void (*)(char const *))
                0x08055d88                ansi_Seek(unsigned int *, int, int)
                0x08055dd0                ansi_Flush(unsigned int *)
                0x08055eb8                x_IOInit(void)
                0x08055c30                x_fputc(int, unsigned int *)
                0x08055df0                ansi_EOF(unsigned int *)
                0x08055190                x_SetPrintAtHook(void (*)(char const *, int, int))
                0x08055b6c                x_feof(unsigned int *)
                0x08055d38                ansi_Read(unsigned int *, unsigned char *, int)
                0x08055980                x_fflush(unsigned int *)
                0x08055e18                ansi_Length(unsigned int *)
                0x08055d1c                ansi_Close(unsigned int *)
                0x08055d60                ansi_Write(unsigned int *, unsigned char const *, int)
                0x080552ec                x_fopen(char const *, char const *)
                0x08055c78                x_flength(unsigned int *)
                0x080554e8                x_fread(void *, int, int, unsigned int *)
                0x0805546c                x_fclose(unsigned int *)
                0x08055e98                ansi_PrintAt(char const *, int, int)
                0x080551a4                x_printf(char const *,...)
                0x08055a00                x_fseek(unsigned int *, int, int)
                0x08055838                x_fprintf(unsigned int *, char const *,...)
                0x08055aec                x_ftell(unsigned int *)
                0x08055f1c                x_IOKill(void)
                0x0805510c                x_GetFileIOHooks(unsigned int *(*&)(char const *, char const *), void (*&)(unsigned int *), int (*&)(unsigned int *, unsigned char *, int), int (*&)(unsigned int *, unsigned char const *, int), int (*&)(unsigned int *, int, int), int (*&)(unsigned int *), int (*&)(unsigned int *), int (*&)(unsigned int *), int (*&)(unsigned int *))
                0x080552bc                x_sprintf(char *, char const *,...)
                0x080550b8                x_SetFileIOHooks(unsigned int *(*)(char const *, char const *), void (*)(unsigned int *), int (*)(unsigned int *, unsigned char *, int), int (*)(unsigned int *, unsigned char const *, int), int (*)(unsigned int *, int, int), int (*)(unsigned int *), int (*)(unsigned int *), int (*)(unsigned int *), int (*)(unsigned int *))
                0x08055e78                ansi_Print(char const *)
                0x08055bec                x_fgetc(unsigned int *)
 *fill*         0x08055f5d        0x3 9090
 .text          0x08055f60      0x543 \Projects\AADS\xCore\x_files\Linux-Debug\x_files.lib(x_mutex.obj)
                0x08055f60                xmutex::xmutex(void)
                0x080560b4                xmutex::Exit(int)
                0x08056218                xsema::Acquire(int)
                0x08055f9c                xmutex::~xmutex(void)
                0x08056038                xmutex::Enter(int)
                0x08056130                xsema::xsema(int, int)
                0x08056358                xsema::Release(int)
                0x08056178                xsema::~xsema(void)
 *fill*         0x080564a3        0x1 9090
 .text          0x080564a4      0x16c \Projects\AADS\xCore\x_files\Linux-Debug\x_files.lib(x_files.obj)
                0x080565fc                x_GetInitialized(void)
                0x08056580                x_GetThreadGlobals(void)
                0x080564d4                x_Kill
                0x080564a4                x_Init
                0x08056504                x_GetThreadID(void)
 .text          0x08056610       0x2c \Projects\AADS\xCore\x_files\Linux-Debug\x_files.lib(x_vsprintf.obj)
                0x08056610                x_vsprintf(char *, char const *, char *)
 .text          0x0805663c       0x22 C:\Projects\AADS\xCore/3rdparty/linux/lib/crti.o
 *fill*         0x0805665e        0x2 9090
 .text          0x08056660       0x84 C:\Projects\AADS\xCore/3rdparty/linux/lib/crtbegin.o
 *fill*         0x080566e4        0xc 9090
 .text          0x080566f0       0x2c C:\Projects\AADS\xCore/3rdparty/linux/lib/crtend.o
 .text          0x0805671c       0x24 C:\Projects\AADS\xCore/3rdparty/linux/lib/crt1.o
                0x0805671c                _start
 .text          0x08056740      0x1c5 C:\Projects\AADS\xCore/3rdparty/linux/lib/libm.a(w_pow.o)
                0x08056740                __pow
                0x08056740                pow
 *fill*         0x08056905        0xb 9090
 .text          0x08056910     0x167b C:\Projects\AADS\xCore/3rdparty/linux/lib/libm.a(k_standard.o)
                0x08056910                __kernel_standard
 *fill*         0x08057f8b        0x1 9090
 .text          0x08057f8c        0xf C:\Projects\AADS\xCore/3rdparty/linux/lib/libm.a(s_matherr.o)
                0x08057f8c                __matherr
                0x08057f8c                matherr
 *fill*         0x08057f9b        0x5 9090
 .text          0x08057fa0      0x235 C:\Projects\AADS\xCore/3rdparty/linux/lib/libm.a(e_pow.o)
                0x08057fa0                __ieee754_pow
 *fill*         0x080581d5        0xb 9090
 .text          0x080581e0       0x1e C:\Projects\AADS\xCore/3rdparty/linux/lib/libm.a(s_copysign.o)
                0x080581e0                __copysign
                0x080581e0                copysign
 *fill*         0x080581fe        0x2 9090
 .text          0x08058200       0x11 C:\Projects\AADS\xCore/3rdparty/linux/lib/libm.a(s_finite.o)
                0x08058200                __finite
                0x08058200                finite
 *fill*         0x08058211        0xf 9090
 .text          0x08058220        0x7 C:\Projects\AADS\xCore/3rdparty/linux/lib/libm.a(s_rint.o)
                0x08058220                rint
                0x08058220                __rint
 *fill*         0x08058227        0x9 9090
 .text          0x08058230       0xd3 C:\Projects\AADS\xCore/3rdparty/linux/lib/libc.a(libc-start.o)
                0x08058230                __libc_start_main
 *fill*         0x08058303        0xd 9090
 .text          0x08058310       0xb0 C:\Projects\AADS\xCore/3rdparty/linux/lib/libc.a(check_fds.o)
                0x08058388                __libc_check_standard_fds
 .text          0x080583c0        0xa C:\Projects\AADS\xCore/3rdparty/linux/lib/libc.a(errno-loc.o)
                0x080583c0                __errno_location
 *fill*         0x080583ca        0x6 9090
 .text          0x080583d0       0xb2 C:\Projects\AADS\xCore/3rdparty/linux/lib/libc.a(assert.o)
                0x080583d0                __assert_fail
 *fill*         0x08058482        0x2 9090
 .text          0x08058484       0x1f C:\Projects\AADS\xCore/3rdparty/linux/lib/libc.a(dcgettext.o)
                0x08058484                __dcgettext
                0x08058484                dcgettext
 *fill*         0x080584a3        0xd 9090
 .text          0x080584b0      0xd17 C:\Projects\AADS\xCore/3rdparty/linux/lib/libc.a(dcigettext.o)
                0x080584f8                __dcigettext
                0x080589e4                _nl_find_msg
 *fill*         0x080591c7        0x9 9090
 .text          0x080591d0      0x222 C:\Projects\AADS\xCore/3rdparty/linux/lib/libc.a(finddomain.o)
                0x080591d0                _nl_find_domain
 *fill*         0x080593f2        0xe 9090
 .text          0x08059400      0x61d C:\Projects\AADS\xCore/3rdparty/linux/lib/libc.a(loadmsgcat.o)
                0x080599b0                _nl_unload_domain
                0x08059400                _nl_load_domain
 *fill*         0x08059a1d        0x3 9090
 .text          0x08059a20      0x516 C:\Projects\AADS\xCore/3rdparty/linux/lib/libc.a(localealias.o)
                0x08059a20                _nl_expand_alias
 *fill*         0x08059f36        0xa 9090
 .text          0x08059f40      0x5a1 C:\Projects\AADS\xCore/3rdparty/linux/lib/libc.a(l10nflist.o)
                0x0805a428                _nl_normalize_codeset
                0x08059f40                _nl_make_l10nflist
 *fill*         0x0805a4e1        0xf 9090
 .text          0x0805a4f0      0x276 C:\Projects\AADS\xCore/3rdparty/linux/lib/libc.a(explodename.o)
                0x0805a518                _nl_explode_name
                0x0805a4f0                _nl_find_language
 *fill*         0x0805a766        0xa 9090
 .text          0x0805a770      0x6e1 C:\Projects\AADS\xCore/3rdparty/linux/lib/libc.a(plural.o)
                0x0805ad6c                __gettext_free_exp
                0x0805a770                __gettextparse
 *fill*         0x0805ae51        0x3 9090
 .text          0x0805ae54       0x28 C:\Projects\AADS\xCore/3rdparty/linux/lib/libc.a(s_isnan.o)
                0x0805ae54                __isnan
                0x0805ae54                isnan
 *fill*         0x0805ae7c        0x4 9090
 .text          0x0805ae80      0x1a3 C:\Projects\AADS\xCore/3rdparty/linux/lib/libc.a(abort.o)
                0x0805ae80                abort
 *fill*         0x0805b023        0xd 9090
 .text          0x0805b030       0x60 C:\Projects\AADS\xCore/3rdparty/linux/lib/libc.a(bsearch.o)
                0x0805b030                bsearch
 .text          0x0805b090      0x26f C:\Projects\AADS\xCore/3rdparty/linux/lib/libc.a(msort.o)
                0x0805b1f8                qsort
 *fill*         0x0805b2ff        0x1 9090
 .text          0x0805b300       0xc0 C:\Projects\AADS\xCore/3rdparty/linux/lib/libc.a(getenv.o)
                0x0805b300                getenv
 .text          0x0805b3c0       0xb8 C:\Projects\AADS\xCore/3rdparty/linux/lib/libc.a(exit.o)
                0x0805b3c0                exit
 *fill*         0x0805b478        0x8 9090
 .text          0x0805b480      0x100 C:\Projects\AADS\xCore/3rdparty/linux/lib/libc.a(atexit.o)
                0x0805b4a8                __new_exitfn
                0x0805b480                atexit
 .text          0x0805b580      0x51c C:\Projects\AADS\xCore/3rdparty/linux/lib/libc.a(strtoul.o)
                0x0805ba84                strtoul
                0x0805b580                __strtoul_internal
 .text          0x0805ba9c       0x1a C:\Projects\AADS\xCore/3rdparty/linux/lib/libc.a(fprintf.o)
                0x0805ba9c                fprintf
                0x0805ba9c                _IO_fprintf
 *fill*         0x0805bab6        0x2 9090
 .text          0x0805bab8       0x1d C:\Projects\AADS\xCore/3rdparty/linux/lib/libc.a(printf.o)
                0x0805bab8                printf
                0x0805bab8                _IO_printf
 *fill*         0x0805bad5        0xb 9090
 .text          0x0805bae0      0x139 C:\Projects\AADS\xCore/3rdparty/linux/lib/libc.a(iofclose.o)
                0x0805bae0                _IO_fclose
                0x0805bae0                _IO_new_fclose
                0x0805bae0                fclose
                0x0805bae0                __new_fclose
 *fill*         0x0805bc19        0x7 9090
 .text          0x0805bc20       0xb0 C:\Projects\AADS\xCore/3rdparty/linux/lib/libc.a(iofflush.o)
                0x0805bc20                _IO_fflush
                0x0805bc20                fflush
 .text          0x0805bcd0       0x8b C:\Projects\AADS\xCore/3rdparty/linux/lib/libc.a(iofopen.o)
                0x0805bcd0                _IO_new_fopen
                0x0805bcd0                fopen
                0x0805bcd0                _IO_fopen
                0x0805bcd0                __new_fopen
 *fill*         0x0805bd5b        0x1 9090
 .text          0x0805bd5c       0xd7 C:\Projects\AADS\xCore/3rdparty/linux/lib/libc.a(iofputs.o)
                0x0805bd5c                _IO_fputs
                0x0805bd5c                fputs
 *fill*         0x0805be33        0xd 9090
 .text          0x0805be40       0xbb C:\Projects\AADS\xCore/3rdparty/linux/lib/libc.a(iofread.o)
                0x0805be40                _IO_fread
                0x0805be40                fread
 *fill*         0x0805befb        0x5 9090
 .text          0x0805bf00       0xcd C:\Projects\AADS\xCore/3rdparty/linux/lib/libc.a(ioftell.o)
                0x0805bf00                _IO_ftell
                0x0805bf00                ftell
 *fill*         0x0805bfcd        0x3 9090
 .text          0x0805bfd0       0xde C:\Projects\AADS\xCore/3rdparty/linux/lib/libc.a(iofwrite.o)
                0x0805bfd0                _IO_fwrite
                0x0805bfd0                fwrite
 *fill*         0x0805c0ae        0x2 9090
 .text          0x0805c0b0      0x106 C:\Projects\AADS\xCore/3rdparty/linux/lib/libc.a(ioseekoff.o)
                0x0805c0b0                _IO_seekoff
 *fill*         0x0805c1b6        0xa 9090
 .text          0x0805c1c0       0x8a C:\Projects\AADS\xCore/3rdparty/linux/lib/libc.a(iovsprintf.o)
                0x0805c1c0                vsprintf
                0x0805c1c0                _IO_vsprintf
 *fill*         0x0805c24a        0x6 9090
 .text          0x0805c250      0xcf2 C:\Projects\AADS\xCore/3rdparty/linux/lib/libc.a(wfileops.o)
                0x0805c250                _IO_wfile_setbuf
                0x0805c2a8                _IO_wdo_write
                0x0805c674                _IO_wfile_overflow
                0x0805ce08                _IO_wfile_xsputn
                0x0805c860                _IO_wfile_sync
                0x0805c99c                _IO_wfile_seekoff
                0x0805c3bc                _IO_wfile_underflow
 *fill*         0x0805cf42        0x2 9090
 .text          0x0805cf44       0x3d C:\Projects\AADS\xCore/3rdparty/linux/lib/libc.a(feof.o)
                0x0805cf44                feof
                0x0805cf44                _IO_feof
 *fill*         0x0805cf81        0x3 9090
 .text          0x0805cf84       0xad C:\Projects\AADS\xCore/3rdparty/linux/lib/libc.a(fseek.o)
                0x0805cf84                fseek
 *fill*         0x0805d031        0x3 9090
 .text          0x0805d034        0xd C:\Projects\AADS\xCore/3rdparty/linux/lib/libc.a(fcloseall.o)
                0x0805d034                __fcloseall
                0x0805d034                fcloseall
 *fill*         0x0805d041        0xf 9090
 .text          0x0805d050       0x69 C:\Projects\AADS\xCore/3rdparty/linux/lib/libc.a(iofgets_u.o)
                0x0805d050                fgets_unlocked
 *fill*         0x0805d0b9        0x7 9090
 .text          0x0805d0c0     0x10a2 C:\Projects\AADS\xCore/3rdparty/linux/lib/libc.a(fileops.o)
                0x0805d22c                _IO_file_finish
                0x0805de04                _IO_new_file_xsputn
                0x0805d8b0                _IO_file_sync
                0x0805dda8                _IO_file_write
                0x0805dd54                _IO_file_seek
                0x0805d0c0                _IO_new_file_init
                0x0805d0f4                _IO_new_file_close_it
                0x0805dd90                _IO_file_close
                0x0805d98c                _IO_file_seekoff
                0x0805d54c                _IO_file_setbuf
                0x0805d2a4                _IO_new_file_fopen
                0x0805d0f4                _IO_file_close_it
                0x0805dd74                _IO_file_stat
                0x0805df54                _IO_file_xsgetn
                0x0805d58c                _IO_new_do_write
                0x0805d68c                _IO_file_underflow
                0x0805d774                _IO_file_overflow
                0x0805de04                _IO_file_xsputn
                0x0805d8b0                _IO_new_file_sync
                0x0805d0c0                _IO_file_init
                0x0805d22c                _IO_new_file_finish
                0x0805d4e0                _IO_new_file_attach
                0x0805d2a4                _IO_file_fopen
                0x0805d54c                _IO_new_file_setbuf
                0x0805dd38                _IO_file_read
                0x0805dda8                _IO_new_file_write
                0x0805d4e0                _IO_file_attach
                0x0805e0b8                _IO_file_open
                0x0805d58c                _IO_do_write
                0x0805d68c                _IO_new_file_underflow
                0x0805d774                _IO_new_file_overflow
                0x0805d98c                _IO_new_file_seekoff
 *fill*         0x0805e162        0xe 9090
 .text          0x0805e170      0xf95 C:\Projects\AADS\xCore/3rdparty/linux/lib/libc.a(genops.o)
                0x0805ee14                _IO_remove_marker
                0x0805e1f4                _IO_link_in
                0x0805ebfc                _IO_sputbackc
                0x0805eb58                _IO_default_finish
                0x0805f078                _IO_list_lock
                0x0805e9a4                _IO_default_doallocate
                0x0805eb50                _IO_default_sync
                0x0805edb4                _cleanup
                0x0805e848                _IO_default_xsgetn
                0x0805e820                _IO_sgetn
                0x0805edcc                _IO_init_marker
                0x0805ed1c                _IO_flush_all_linebuffered
                0x0805e728                _IO_default_underflow
                0x0805e768                _IO_default_xsputn
                0x0805e8d8                _IO_default_setbuf
                0x0805ec44                _IO_sungetc
                0x0805e370                __overflow
                0x0805eee4                _IO_unsave_markers
                0x0805f034                _IO_default_write
                0x0805f048                _IO_default_imbue
                0x0805f028                _IO_default_read
                0x0805f050                _IO_iter_begin
                0x0805f03c                _IO_default_showmanyc
                0x0805edb4                _IO_cleanup
                0x0805e974                _IO_default_seekpos
                0x0805ea0c                _IO_no_init
                0x0805ecb4                _IO_flush_all
                0x0805f070                _IO_iter_file
                0x0805ec88                _IO_adjust_column
                0x0805ee50                _IO_marker_delta
                0x0805f01c                _IO_default_stat
                0x0805ee3c                _IO_marker_difference
                0x0805e32c                _IO_free_backup_area
                0x0805e504                __underflow
                0x0805e734                _IO_default_uflow
                0x0805e5c0                __uflow
                0x0805e248                _IO_least_marker
                0x0805f0b8                _IO_list_resetlock
                0x0805e68c                _IO_setb
                0x0805f098                _IO_list_unlock
                0x0805e2c8                _IO_switch_to_get_mode
                0x0805ebec                _IO_default_seekoff
                0x0805e6dc                _IO_doallocbuf
                0x0805ed1c                _flushlbf
                0x0805e29c                _IO_switch_to_backup_area
                0x0805e9f0                _IO_init
                0x0805f05c                _IO_iter_end
                0x0805f00c                _IO_default_seek
                0x0805e170                _IO_un_link
                0x0805ef0c                _IO_default_pbackfail
                0x0805f064                _IO_iter_next
                0x0805e274                _IO_switch_to_main_get_area
                0x0805ee84                _IO_seekmark
 *fill*         0x0805f105        0x3 9090
 *fill*         0x0805f108        0x8 9090
 .text          0x0805f110      0x41c C:\Projects\AADS\xCore/3rdparty/linux/lib/libc.a(strops.o)
                0x0805f1d4                _IO_str_init_readonly
                0x0805f3a0                _IO_str_seekoff
                0x0805f4c4                _IO_str_pbackfail
                0x0805f4f0                _IO_str_finish
                0x0805f1f4                _IO_str_overflow
                0x0805f110                _IO_str_init_static
                0x0805f388                _IO_str_count
                0x0805f338                _IO_str_underflow
 *fill*         0x0805f52c        0x4 9090
 .text          0x0805f530     0x37aa C:\Projects\AADS\xCore/3rdparty/linux/lib/libc.a(malloc.o)
                0x08061e94                malloc_get_state
                0x0806090c                __cfree
                0x0806163c                __calloc
                0x08061cb8                malloc_stats
                0x08062c9c                __posix_memalign
                0x08061dc8                __mallinfo
                0x08061314                __libc_memalign
                0x08061314                __memalign
                0x08061920                __malloc_trim
                0x0805ff30                malloc
                0x08061608                pvalloc
                0x08061dc8                __libc_mallinfo
                0x08060c74                __libc_realloc
                0x0806163c                calloc
                0x08061b7c                malloc_usable_size
                0x08061608                __libc_pvalloc
                0x080615e0                __libc_valloc
                0x0805ff30                __malloc
                0x0806090c                __free
                0x08062024                malloc_set_state
                0x0805ff30                __libc_malloc
                0x0806090c                __libc_free
                0x08061608                __pvalloc
                0x08060c74                realloc
                0x08061e24                __libc_mallopt
                0x08061920                malloc_trim
                0x08061e24                mallopt
                0x0805fa04                __malloc_check_init
                0x08061314                memalign
                0x0806090c                cfree
                0x080615e0                valloc
                0x08061dc8                mallinfo
                0x0806163c                __libc_calloc
                0x08061b7c                __malloc_usable_size
                0x08062024                __malloc_set_state
                0x08060c74                __realloc
                0x08061e24                __mallopt
                0x08061e94                __malloc_get_state
                0x08061cb8                __malloc_stats
                0x08062c9c                posix_memalign
                0x080615e0                __valloc
                0x0806090c                free
 *fill*         0x08062cda        0x2 9090
 .text          0x08062cdc       0x1a C:\Projects\AADS\xCore/3rdparty/linux/lib/libc.a(morecore.o)
                0x08062cdc                __default_morecore
 *fill*         0x08062cf6        0xa 9090
 .text          0x08062d00      0x167 C:\Projects\AADS\xCore/3rdparty/linux/lib/libc.a(strchr.o)
                0x08062d00                index
                0x08062d00                strchr
 *fill*         0x08062e67        0x9 9090
 .text          0x08062e70       0x38 C:\Projects\AADS\xCore/3rdparty/linux/lib/libc.a(strcmp.o)
                0x08062e70                strcmp
 *fill*         0x08062ea8        0x8 9090
 .text          0x08062eb0       0x4a C:\Projects\AADS\xCore/3rdparty/linux/lib/libc.a(strdup.o)
                0x08062eb0                __strdup
                0x08062eb0                strdup
 *fill*         0x08062efa        0x6 9090
 .text          0x08062f00       0x82 C:\Projects\AADS\xCore/3rdparty/linux/lib/libc.a(strncmp.o)
                0x08062f00                strncmp
 *fill*         0x08062f82        0xe 9090
 .text          0x08062f90      0x1b9 C:\Projects\AADS\xCore/3rdparty/linux/lib/libc.a(strrchr.o)
                0x08062f90                strrchr
                0x08062f90                rindex
 *fill*         0x08063149        0x7 9090
 .text          0x08063150       0xa7 C:\Projects\AADS\xCore/3rdparty/linux/lib/libc.a(strstr.o)
                0x08063150                strstr
 *fill*         0x080631f7        0x9 9090
 .text          0x08063200       0x7f C:\Projects\AADS\xCore/3rdparty/linux/lib/libc.a(memmove.o)
                0x08063200                memmove
 *fill*         0x0806327f        0x1 9090
 .text          0x08063280       0x46 C:\Projects\AADS\xCore/3rdparty/linux/lib/libc.a(memset.o)
                0x08063280                memset
 *fill*         0x080632c6        0xa 9090
 .text          0x080632d0       0x3b C:\Projects\AADS\xCore/3rdparty/linux/lib/libc.a(mempcpy.o)
                0x080632d0                mempcpy
                0x080632d0                __mempcpy
 *fill*         0x0806330b        0x5 9090
 .text          0x08063310       0x41 C:\Projects\AADS\xCore/3rdparty/linux/lib/libc.a(stpcpy.o)
                0x08063310                stpcpy
                0x08063310                __stpcpy
 *fill*         0x08063351        0xf 9090
 .text          0x08063360       0x4a C:\Projects\AADS\xCore/3rdparty/linux/lib/libc.a(strcasecmp.o)
                0x08063360                strcasecmp
                0x08063360                __strcasecmp
 *fill*         0x080633aa        0x6 9090
 .text          0x080633b0       0x3b C:\Projects\AADS\xCore/3rdparty/linux/lib/libc.a(memcpy.o)
                0x080633b0                memcpy
 *fill*         0x080633eb        0x5 9090
 .text          0x080633f0       0xc6 C:\Projects\AADS\xCore/3rdparty/linux/lib/libc.a(rawmemchr.o)
                0x080633f0                __rawmemchr
                0x080633f0                rawmemchr
 *fill*         0x080634b6        0xa 9090
 .text          0x080634c0       0x30 C:\Projects\AADS\xCore/3rdparty/linux/lib/libc.a(argz-count.o)
                0x080634c0                argz_count
                0x080634c0                __argz_count
 .text          0x080634f0       0x4a C:\Projects\AADS\xCore/3rdparty/linux/lib/libc.a(argz-stringify.o)
                0x080634f0                argz_stringify
                0x080634f0                __argz_stringify
 *fill*         0x0806353a        0x2 9090
 .text          0x0806353c       0x1d C:\Projects\AADS\xCore/3rdparty/linux/lib/libc.a(wmempcpy.o)
                0x0806353c                wmempcpy
                0x0806353c                __wmempcpy
 *fill*         0x08063559        0x7 9090
 .text          0x08063560      0x3bd C:\Projects\AADS\xCore/3rdparty/linux/lib/libc.a(wcsmbsload.o)
                0x08063798                __wcsmbs_clone_conv
                0x08063560                __wcsmbs_load_conv
                0x0806380c                __wcsmbs_named_conv
 *fill*         0x0806391d        0x3 9090
 .text          0x08063920       0x1f C:\Projects\AADS\xCore/3rdparty/linux/lib/libc.a(gettimeofday.o)
                0x08063920                __gettimeofday
                0x08063920                gettimeofday
 *fill*         0x0806393f        0x1 9090
 .text          0x08063940       0x1a C:\Projects\AADS\xCore/3rdparty/linux/lib/libc.a(_exit.o)
                0x08063940                _Exit
                0x08063940                _exit
 *fill*         0x0806395a        0x6 9090
 .text          0x08063960      0x1f7 C:\Projects\AADS\xCore/3rdparty/linux/lib/libc.a(sysconf.o)
                0x08063960                sysconf
                0x08063960                __sysconf
 *fill*         0x08063b57        0x1 9090
 *fill*         0x08063b58        0x8 9090
 .text          0x08063b60      0x17b C:\Projects\AADS\xCore/3rdparty/linux/lib/libc.a(fxstat64.o)
                0x08063b60                ___fxstat64
                0x08063b60                __fxstat64
 *fill*         0x08063cdb        0x5 9090
 .text          0x08063ce0       0x21 C:\Projects\AADS\xCore/3rdparty/linux/lib/libc.a(open.o)
                0x08063ce0                __libc_open
                0x08063ce0                open
 *fill*         0x08063d01        0x3 9090
 .text          0x08063d04       0x24 C:\Projects\AADS\xCore/3rdparty/linux/lib/libc.a(open64.o)
                0x08063d04                __libc_open64
                0x08063d04                open64
 *fill*         0x08063d28        0x8 9090
 .text          0x08063d30       0x1b C:\Projects\AADS\xCore/3rdparty/linux/lib/libc.a(close.o)
                0x08063d30                __libc_close
                0x08063d30                close
 *fill*         0x08063d4b        0x5 9090
 .text          0x08063d50       0x21 C:\Projects\AADS\xCore/3rdparty/linux/lib/libc.a(read.o)
                0x08063d50                __libc_read
                0x08063d50                read
 *fill*         0x08063d71        0xf 9090
 .text          0x08063d80       0x21 C:\Projects\AADS\xCore/3rdparty/linux/lib/libc.a(write.o)
                0x08063d80                write
                0x08063d80                __libc_write
 *fill*         0x08063da1        0xf 9090
 .text          0x08063db0      0x1c4 C:\Projects\AADS\xCore/3rdparty/linux/lib/libc.a(fcntl.o)
                0x08063db0                __libc_fcntl
                0x08063db0                fcntl
 *fill*         0x08063f74        0xc 9090
 .text          0x08063f80      0x767 C:\Projects\AADS\xCore/3rdparty/linux/lib/libc.a(getcwd.o)
                0x08063f80                __getcwd
                0x08063f80                getcwd
 *fill*         0x080646e7        0x9 9090
 .text          0x080646f0       0x21 C:\Projects\AADS\xCore/3rdparty/linux/lib/libc.a(readlink.o)
                0x080646f0                readlink
                0x080646f0                __readlink
 *fill*         0x08064711        0xf 9090
 .text          0x08064720       0x6c C:\Projects\AADS\xCore/3rdparty/linux/lib/libc.a(sbrk.o)
                0x08064720                sbrk
                0x08064720                __sbrk
 .text          0x0806478c       0x13 C:\Projects\AADS\xCore/3rdparty/linux/lib/libc.a(getpagesize.o)
                0x0806478c                getpagesize
                0x0806478c                __getpagesize
 *fill*         0x0806479f        0x1 9090
 .text          0x080647a0       0x24 C:\Projects\AADS\xCore/3rdparty/linux/lib/libc.a(getdtsz.o)
                0x080647a0                __getdtablesize
                0x080647a0                getdtablesize
 .text          0x080647c4       0x56 C:\Projects\AADS\xCore/3rdparty/linux/lib/libc.a(usleep.o)
                0x080647c4                usleep
 *fill*         0x0806481a        0x6 9090
 .text          0x08064820       0x1b C:\Projects\AADS\xCore/3rdparty/linux/lib/libc.a(mmap.o)
                0x08064820                __mmap
                0x08064820                mmap
 *fill*         0x0806483b        0x5 9090
 .text          0x08064840       0x1f C:\Projects\AADS\xCore/3rdparty/linux/lib/libc.a(munmap.o)
                0x08064840                munmap
                0x08064840                __munmap
 *fill*         0x0806485f        0x1 9090
 .text          0x08064860       0x21 C:\Projects\AADS\xCore/3rdparty/linux/lib/libc.a(mprotect.o)
                0x08064860                __mprotect
                0x08064860                mprotect
 *fill*         0x08064881        0xf 9090
 .text          0x08064890      0x6c3 C:\Projects\AADS\xCore/3rdparty/linux/lib/libc.a(tsearch.o)
                0x08064990                tsearch
                0x08064990                __tsearch
                0x08064f3c                __tdestroy
                0x08064ae4                tdelete
                0x08064f3c                tdestroy
                0x08064a9c                tfind
                0x08064edc                __twalk
                0x08064edc                twalk
                0x08064a9c                __tfind
                0x08064ae4                __tdelete
 *fill*         0x08064f53        0xd 9090
 .text          0x08064f60      0x322 C:\Projects\AADS\xCore/3rdparty/linux/lib/libc.a(getsysstats.o)
                0x08065048                __get_nprocs
                0x08065258                get_avphys_pages
                0x08065048                __get_nprocs_conf
                0x08065244                get_phys_pages
                0x08065048                get_nprocs
                0x08065244                __get_phys_pages
                0x08065258                __get_avphys_pages
                0x08065048                get_nprocs_conf
 *fill*         0x08065282        0x2 9090
 .text          0x08065284       0x13 C:\Projects\AADS\xCore/3rdparty/linux/lib/libc.a(getclktck.o)
                0x08065284                __getclktck
 *fill*         0x08065297        0x1 9090
 .text          0x08065298       0x5b C:\Projects\AADS\xCore/3rdparty/linux/lib/libc.a(llseek.o)
                0x08065298                __llseek
                0x08065298                __lseek64
                0x08065298                __libc_lseek64
                0x08065298                lseek64
 *fill*         0x080652f3        0xd 9090
 .text          0x08065300       0x27 C:\Projects\AADS\xCore/3rdparty/linux/lib/libc.a(mremap.o)
                0x08065300                mremap
                0x08065300                __mremap
 *fill*         0x08065327        0x1 9090
 .text          0x08065328       0x29 C:\Projects\AADS\xCore/3rdparty/linux/lib/libc.a(weaks.o)
                0x08065338                pthread_cond_signal
                0x08065338                pthread_mutexattr_gettype
                0x08065338                pthread_attr_destroy
                0x08065338                pthread_attr_getstacksize
                0x0806534c                __pthread_return_void
                0x08065338                pthread_rwlock_rdlock
                0x08065338                pthread_attr_init
                0x08065338                pthread_rwlock_init
                0x08065328                pthread_exit
                0x08065338                __libc_pthread_attr_init_2_1
                0x08065338                pthread_rwlockattr_setpshared
                0x08065338                pthread_condattr_init
                0x08065338                pthread_attr_getstackaddr
                0x08065338                pthread_mutexattr_destroy
                0x08065338                pthread_attr_getscope
                0x08065338                pthread_rwlock_destroy
                0x08065338                pthread_rwlock_unlock
                0x08065338                pthread_attr_getinheritsched
                0x08065338                pthread_attr_getschedpolicy
                0x08065338                pthread_attr_setstackaddr
                0x08065338                pthread_getcancelstate
                0x08065338                pthread_condattr_destroy
                0x08065338                pthread_attr_setscope
                0x08065338                pthread_cond_broadcast
                0x08065338                pthread_attr_setinheritsched
                0x08065338                pthread_setconcurrency
                0x08065338                pthread_attr_setstacksize
                0x08065338                pthread_rwlock_wrlock
                0x08065338                pthread_rwlockattr_getpshared
                0x08065338                pthread_cond_init
                0x08065338                pthread_rwlockattr_init
                0x08065338                pthread_mutexattr_settype
                0x08065338                pthread_attr_getdetachstate
                0x08065338                pthread_mutex_unlock
                0x08065338                pthread_rwlockattr_destroy
                0x08065338                pthread_rwlock_trywrlock
                0x08065338                pthread_rwlock_tryrdlock
                0x08065338                __pthread_return_0
                0x08065338                pthread_mutexattr_init
                0x08065338                pthread_mutex_destroy
                0x08065340                __pthread_return_1
                0x08065338                pthread_mutex_lock
                0x08065338                pthread_cond_wait
                0x08065338                pthread_mutex_trylock
                0x08065338                pthread_cond_destroy
                0x08065338                pthread_attr_setschedpolicy
                0x08065338                pthread_mutex_init
                0x08065338                pthread_attr_setschedparam
                0x08065338                pthread_attr_setdetachstate
                0x08065338                pthread_getconcurrency
                0x08065338                pthread_cond_timedwait
                0x08065338                pthread_attr_getschedparam
 *fill*         0x08065351        0x3 9090
 *fill*         0x08065354        0xc 9090
 .text          0x08065360     0x2a25 C:\Projects\AADS\xCore/3rdparty/linux/lib/libc.a(dl-load.o)
                0x08065bd8                _dl_init_paths
                0x0806549c                _dl_dst_substitute
                0x08065360                _dl_dst_count
                0x080675a0                _dl_map_object
 *fill*         0x08067d85        0xb 9090
 .text          0x08067d90      0x5ff C:\Projects\AADS\xCore/3rdparty/linux/lib/libc.a(dl-cache.o)
                0x08067e34                _dl_load_cache_lookup
                0x08068360                _dl_unload_cache
 *fill*         0x0806838f        0x1 9090
 .text          0x08068390     0x2931 C:\Projects\AADS\xCore/3rdparty/linux/lib/libc.a(dl-lookup.o)
                0x0806ac94                _dl_setup_hash
                0x08069e68                _dl_lookup_versioned_symbol_skip
                0x08068b24                _dl_lookup_symbol_skip
                0x08069424                _dl_lookup_versioned_symbol
                0x0806850c                _dl_lookup_symbol
 *fill*         0x0806acc1        0xf 9090
 .text          0x0806acd0      0x27f C:\Projects\AADS\xCore/3rdparty/linux/lib/libc.a(dl-object.o)
                0x0806acd0                _dl_new_object
 *fill*         0x0806af4f        0x1 9090
 .text          0x0806af50      0x388 C:\Projects\AADS\xCore/3rdparty/linux/lib/libc.a(dl-error.o)
                0x0806b248                _dl_receive_error
                0x0806b0fc                _dl_signal_cerror
                0x0806af50                _dl_signal_error
                0x0806b128                _dl_catch_error
 *fill*         0x0806b2d8        0x8 9090
 .text          0x0806b2e0      0x1f1 C:\Projects\AADS\xCore/3rdparty/linux/lib/libc.a(dl-misc.o)
                0x0806b360                _dl_sysdep_output
                0x0806b3a4                _dl_debug_message
                0x0806b2e0                _dl_sysdep_read_whole_file
 *fill*         0x0806b4d1        0xf 9090
 .text          0x0806b4e0      0x1e6 C:\Projects\AADS\xCore/3rdparty/linux/lib/libc.a(dl-support.o)
                0x0806b684                _dl_important_hwcaps
                0x0806b4e0                _dl_aux_init
 *fill*         0x0806b6c6        0x2 9090
 .text          0x0806b6c8       0x39 C:\Projects\AADS\xCore/3rdparty/linux/lib/libc.a(enbl-secure.o)
                0x0806b6c8                __libc_init_secure
 *fill*         0x0806b701        0xf 9090
 .text          0x0806b710       0xeb C:\Projects\AADS\xCore/3rdparty/linux/lib/libc.a(dl-origin.o)
                0x0806b710                _dl_get_origin
 *fill*         0x0806b7fb        0x1 9090
 *fill*         0x0806b7fc        0x4 9090
 .text          0x0806b800       0xaf C:\Projects\AADS\xCore/3rdparty/linux/lib/libc.a(init-first.o)
                0x0806b8a4                _dl_start
                0x0806b888                __libc_init_first
 *fill*         0x0806b8af        0x1 9090
 .text          0x0806b8b0       0x43 C:\Projects\AADS\xCore/3rdparty/linux/lib/libc.a(set-init.o)
                0x0806b8b0                __libc_init
 *fill*         0x0806b8f3        0xd 9090
 .text          0x0806b900       0x11 C:\Projects\AADS\xCore/3rdparty/linux/lib/libc.a(sysdep.o)
                0x0806b902                __syscall_error_1
                0x0806b900                __syscall_error
 *fill*         0x0806b911        0xf 9090
 .text          0x0806b920      0x5ba C:\Projects\AADS\xCore/3rdparty/linux/lib/libc.a(gconv_open.o)
                0x0806b920                __gconv_open
 *fill*         0x0806beda        0x6 9090
 .text          0x0806bee0      0x179 C:\Projects\AADS\xCore/3rdparty/linux/lib/libc.a(gconv.o)
                0x0806bee0                __gconv
 *fill*         0x0806c059        0x7 9090
 .text          0x0806c060       0x9b C:\Projects\AADS\xCore/3rdparty/linux/lib/libc.a(gconv_close.o)
                0x0806c060                __gconv_close
 *fill*         0x0806c0fb        0x5 9090
 .text          0x0806c100      0xd3f C:\Projects\AADS\xCore/3rdparty/linux/lib/libc.a(gconv_db.o)
                0x0806cb58                __gconv_find_transform
                0x0806c100                __gconv_alias_compare
                0x0806cd14                __gconv_close_transform
 *fill*         0x0806ce3f        0x1 9090
 .text          0x0806ce40      0xcad C:\Projects\AADS\xCore/3rdparty/linux/lib/libc.a(gconv_conf.o)
                0x0806d4b8                __gconv_get_path
                0x0806d7b0                __gconv_read_conf
 *fill*         0x0806daed        0x3 9090
 .text          0x0806daf0       0xb0 C:\Projects\AADS\xCore/3rdparty/linux/lib/libc.a(gconv_builtin.o)
                0x0806daf0                __gconv_get_builtin_trans
 .text          0x0806dba0     0x3fc3 C:\Projects\AADS\xCore/3rdparty/linux/lib/libc.a(gconv_simple.o)
                0x0806f8a4                __gconv_transform_utf8_internal
                0x0806e99c                __gconv_transform_ascii_internal
                0x08070570                __gconv_transform_ucs2_internal
                0x0806e60c                __gconv_transform_ucs4le_internal
                0x0806dba0                __gconv_transform_internal_ucs4
                0x08071044                __gconv_transform_ucs2reverse_internal
                0x0806defc                __gconv_transform_ucs4_internal
                0x0806ebfc                __gconv_transform_internal_ascii
                0x08070a4c                __gconv_transform_internal_ucs2
                0x0806f1ac                __gconv_transform_internal_utf8
                0x0806e2cc                __gconv_transform_internal_ucs4le
                0x0807154c                __gconv_transform_internal_ucs2reverse
 *fill*         0x08071b63        0xd 9090
 .text          0x08071b70      0x621 C:\Projects\AADS\xCore/3rdparty/linux/lib/libc.a(gconv_trans.o)
                0x08071f7c                __gconv_translit_find
                0x08071b70                __gconv_transliterate
 *fill*         0x08072191        0xf 9090
 .text          0x080721a0      0x23f C:\Projects\AADS\xCore/3rdparty/linux/lib/libc.a(gconv_dl.o)
                0x080721bc                __gconv_find_shlib
                0x08072378                __gconv_release_shlib
 *fill*         0x080723df        0x1 9090
 .text          0x080723e0      0x920 C:\Projects\AADS\xCore/3rdparty/linux/lib/libc.a(setlocale.o)
                0x080723e0                setlocale
 .text          0x08072d00      0x3db C:\Projects\AADS\xCore/3rdparty/linux/lib/libc.a(findlocale.o)
                0x08072fdc                _nl_remove_locale
                0x08072d00                _nl_find_locale
 *fill*         0x080730db        0x5 9090
 .text          0x080730e0      0x384 C:\Projects\AADS\xCore/3rdparty/linux/lib/libc.a(loadlocale.o)
                0x080730e0                _nl_load_locale
                0x08073410                _nl_unload_locale
 *fill*         0x08073464        0xc 9090
 .text          0x08073470       0xa5 C:\Projects\AADS\xCore/3rdparty/linux/lib/libc.a(lc-ctype.o)
                0x08073470                _nl_postload_ctype
 *fill*         0x08073515        0x3 9090
 *fill*         0x08073518        0x8 9090
 .text          0x08073520      0x524 C:\Projects\AADS\xCore/3rdparty/linux/lib/libc.a(lc-time.o)
                0x08073860                _nl_select_era_entry
                0x08073958                _nl_get_walt_digit
                0x0807388c                _nl_get_alt_digit
                0x08073520                _nl_postload_time
                0x08073754                _nl_get_era_entry
 .text          0x08073a44       0x26 C:\Projects\AADS\xCore/3rdparty/linux/lib/libc.a(setfpucw.o)
                0x08073a44                __setfpucw
 *fill*         0x08073a6a        0x2 9090
 *fill*         0x08073a6c        0x4 9090
 .text          0x08073a70       0x24 C:\Projects\AADS\xCore/3rdparty/linux/lib/libc.a(bsd-_setjmp.o)
                0x08073a70                _setjmp
 .text          0x08073a94       0x49 C:\Projects\AADS\xCore/3rdparty/linux/lib/libc.a(longjmp.o)
                0x08073a94                longjmp
                0x08073a94                _longjmp
                0x08073a94                siglongjmp
                0x08073a94                __libc_longjmp
                0x08073a94                __libc_siglongjmp
 *fill*         0x08073add        0x3 9090
 .text          0x08073ae0       0x1c C:\Projects\AADS\xCore/3rdparty/linux/lib/libc.a(__longjmp.o)
                0x08073ae0                __longjmp
 .text          0x08073afc        0x5 C:\Projects\AADS\xCore/3rdparty/linux/lib/libc.a(jmp-unwind.o)
                0x08073afc                _longjmp_unwind
 *fill*         0x08073b01        0x3 9090
 .text          0x08073b04       0x19 C:\Projects\AADS\xCore/3rdparty/linux/lib/libc.a(raise.o)
                0x08073b04                gsignal
                0x08073b04                raise
 *fill*         0x08073b1d        0x3 9090
 .text          0x08073b20      0x1d0 C:\Projects\AADS\xCore/3rdparty/linux/lib/libc.a(sigaction.o)
                0x08073b20                __libc_sigaction
                0x08073b20                sigaction
                0x08073b20                __sigaction
 .text          0x08073cf0       0x93 C:\Projects\AADS\xCore/3rdparty/linux/lib/libc.a(sigprocmask.o)
                0x08073cf0                __sigprocmask
                0x08073cf0                sigprocmask
 *fill*         0x08073d83        0xd 9090
 .text          0x08073d90       0x1f C:\Projects\AADS\xCore/3rdparty/linux/lib/libc.a(kill.o)
                0x08073d90                __kill
                0x08073d90                kill
 *fill*         0x08073daf        0x1 9090
 .text          0x08073db0      0x3ca C:\Projects\AADS\xCore/3rdparty/linux/lib/libc.a(qsort.o)
                0x08073db0                _quicksort
 *fill*         0x0807417a        0x6 9090
 .text          0x08074180      0x45e C:\Projects\AADS\xCore/3rdparty/linux/lib/libc.a(setenv.o)
                0x08074484                unsetenv
                0x08074180                __add_to_environ
                0x08074548                clearenv
                0x0807446c                setenv
                0x0807446c                __setenv
                0x08074548                __clearenv
                0x08074484                __unsetenv
 *fill*         0x080745de        0x2 9090
 .text          0x080745e0      0x54c C:\Projects\AADS\xCore/3rdparty/linux/lib/libc.a(strtol.o)
                0x080745e0                __strtol_internal
                0x08074b14                strtol
 *fill*         0x08074b2c        0x4 9090
 .text          0x08074b30     0x43a0 C:\Projects\AADS\xCore/3rdparty/linux/lib/libc.a(vfprintf.o)
                0x08074c0c                _IO_vfprintf
                0x08074c0c                vfprintf
 .text          0x08078ed0     0x1c54 C:\Projects\AADS\xCore/3rdparty/linux/lib/libc.a(printf_fp.o)
                0x08078fd8                __printf_fp
                0x0807aa38                __guess_grouping
 *fill*         0x0807ab24        0xc 9090
 .text          0x0807ab30       0x45 C:\Projects\AADS\xCore/3rdparty/linux/lib/libc.a(reg-printf.o)
                0x0807ab30                __register_printf_function
                0x0807ab30                register_printf_function
 *fill*         0x0807ab75        0xb 9090
 .text          0x0807ab80     0x146d C:\Projects\AADS\xCore/3rdparty/linux/lib/libc.a(printf_fphex.o)
                0x0807ab80                __printf_fphex
 *fill*         0x0807bfed        0x3 9090
 .text          0x0807bff0       0x1a C:\Projects\AADS\xCore/3rdparty/linux/lib/libc.a(sscanf.o)
                0x0807bff0                sscanf
                0x0807bff0                _IO_sscanf
 *fill*         0x0807c00a        0x2 9090
 .text          0x0807c00c       0x1a C:\Projects\AADS\xCore/3rdparty/linux/lib/libc.a(lockfile.o)
                0x0807c014                _IO_funlockfile
                0x0807c00c                _IO_flockfile
                0x0807c01c                ftrylockfile
                0x0807c01c                _IO_ftrylockfile
                0x0807c014                funlockfile
                0x0807c00c                __flockfile
                0x0807c00c                flockfile
                0x0807c01c                __ftrylockfile
                0x0807c014                __funlockfile
 *fill*         0x0807c026        0xa 9090
 .text          0x0807c030       0xbf C:\Projects\AADS\xCore/3rdparty/linux/lib/libc.a(filedoalloc.o)
                0x0807c030                _IO_file_doallocate
 *fill*         0x0807c0ef        0x1 9090
 .text          0x0807c0f0       0xdd C:\Projects\AADS\xCore/3rdparty/linux/lib/libc.a(wfiledoalloc.o)
                0x0807c0f0                _IO_wfile_doallocate
 *fill*         0x0807c1cd        0x3 9090
 .text          0x0807c1d0      0x1c1 C:\Projects\AADS\xCore/3rdparty/linux/lib/libc.a(iogetdelim.o)
                0x0807c1d0                __getdelim
                0x0807c1d0                getdelim
                0x0807c1d0                _IO_getdelim
 *fill*         0x0807c391        0xf 9090
 .text          0x0807c3a0      0x154 C:\Projects\AADS\xCore/3rdparty/linux/lib/libc.a(iogetline.o)
                0x0807c3c4                _IO_getline_info
                0x0807c3a0                _IO_getline
 *fill*         0x0807c4f4        0xc 9090
 .text          0x0807c500       0xa6 C:\Projects\AADS\xCore/3rdparty/linux/lib/libc.a(iopadn.o)
                0x0807c500                _IO_padn
 *fill*         0x0807c5a6        0x2 9090
 .text          0x0807c5a8       0x5f C:\Projects\AADS\xCore/3rdparty/linux/lib/libc.a(iovsscanf.o)
                0x0807c5a8                vsscanf
                0x0807c5a8                __vsscanf
                0x0807c5a8                _IO_vsscanf
 *fill*         0x0807c607        0x9 9090
 .text          0x0807c610       0xa6 C:\Projects\AADS\xCore/3rdparty/linux/lib/libc.a(iowpadn.o)
                0x0807c610                _IO_wpadn
 *fill*         0x0807c6b6        0xa 9090
 .text          0x0807c6c0      0xc1f C:\Projects\AADS\xCore/3rdparty/linux/lib/libc.a(wgenops.o)
                0x0807cc90                _IO_wdefault_xsgetn
                0x0807cd44                _IO_wdoallocbuf
                0x0807c6c0                _IO_least_wmarker
                0x0807d24c                _IO_seekwmark
                0x0807c9f4                __woverflow
                0x0807ce7c                _IO_switch_to_wget_mode
                0x0807c6f4                _IO_switch_to_main_wget_area
                0x0807d18c                _IO_adjust_wcolumn
                0x0807ce30                _IO_wdefault_doallocate
                0x0807d144                _IO_sungetwc
                0x0807d210                _IO_wmarker_delta
                0x0807cef0                _IO_free_wbackup_area
                0x0807cbdc                _IO_wdefault_xsputn
                0x0807cb10                __wunderflow
                0x0807c730                _IO_switch_to_wbackup_area
                0x0807c9c0                _IO_wdefault_uflow
                0x0807d1bc                _IO_init_wmarker
                0x0807c918                _IO_wdefault_finish
                0x0807d0f8                _IO_sputbackwc
                0x0807d2b8                _IO_unsave_wmarkers
                0x0807cd90                _IO_wdefault_setbuf
                0x0807ca30                __wuflow
                0x0807c76c                _IO_wsetb
                0x0807c7cc                _IO_wdefault_pbackfail
 *fill*         0x0807d2df        0x1 9090
 .text          0x0807d2e0      0x3aa C:\Projects\AADS\xCore/3rdparty/linux/lib/libc.a(iofwide.o)
                0x0807d2e0                _IO_fwide
                0x0807d2e0                fwide
 *fill*         0x0807d68a        0x6 9090
 .text          0x0807d690       0x20 C:\Projects\AADS\xCore/3rdparty/linux/lib/libc.a(strcpy.o)
                0x0807d690                strcpy
 .text          0x0807d6b0       0x59 C:\Projects\AADS\xCore/3rdparty/linux/lib/libc.a(strndup.o)
                0x0807d6b0                strndup
                0x0807d6b0                __strndup
 *fill*         0x0807d709        0x7 9090
 .text          0x0807d710       0xf8 C:\Projects\AADS\xCore/3rdparty/linux/lib/libc.a(_strerror.o)
                0x0807d710                __strerror_r
                0x0807d710                strerror_r
 .text          0x0807d808       0x2d C:\Projects\AADS\xCore/3rdparty/linux/lib/libc.a(strnlen.o)
                0x0807d808                __strnlen
                0x0807d808                strnlen
 *fill*         0x0807d835        0xb 9090
 .text          0x0807d840       0xb3 C:\Projects\AADS\xCore/3rdparty/linux/lib/libc.a(strpbrk.o)
                0x0807d840                strpbrk
 *fill*         0x0807d8f3        0xd 9090
 .text          0x0807d900      0x19b C:\Projects\AADS\xCore/3rdparty/linux/lib/libc.a(memchr.o)
                0x0807d900                memchr
                0x0807d900                __memchr
                0x0807d900                __ubp_memchr
 *fill*         0x0807da9b        0x5 9090
 .text          0x0807daa0       0xbc C:\Projects\AADS\xCore/3rdparty/linux/lib/libc.a(argz-ctsep.o)
                0x0807daa0                __argz_create_sep
                0x0807daa0                argz_create_sep
 *fill*         0x0807db5c        0x4 9090
 .text          0x0807db60       0x8e C:\Projects\AADS\xCore/3rdparty/linux/lib/libc.a(argz-addsep.o)
                0x0807db60                argz_add_sep
                0x0807db60                __argz_add_sep
 *fill*         0x0807dbee        0x2 9090
 .text          0x0807dbf0       0x21 C:\Projects\AADS\xCore/3rdparty/linux/lib/libc.a(wcschr.o)
                0x0807dbf0                wcschr
 *fill*         0x0807dc11        0x3 9090
 .text          0x0807dc14       0x1d C:\Projects\AADS\xCore/3rdparty/linux/lib/libc.a(wmemcpy.o)
                0x0807dc14                wmemcpy
                0x0807dc14                __wmemcpy
 *fill*         0x0807dc31        0x3 9090
 .text          0x0807dc34       0x1d C:\Projects\AADS\xCore/3rdparty/linux/lib/libc.a(wmemmove.o)
                0x0807dc34                __wmemmove
                0x0807dc34                wmemmove
 *fill*         0x0807dc51        0x3 9090
 .text          0x0807dc54       0x22 C:\Projects\AADS\xCore/3rdparty/linux/lib/libc.a(mbrlen.o)
                0x0807dc54                mbrlen
                0x0807dc54                __mbrlen
 *fill*         0x0807dc76        0xa 9090
 .text          0x0807dc80      0x150 C:\Projects\AADS\xCore/3rdparty/linux/lib/libc.a(mbrtowc.o)
                0x0807dc80                mbrtowc
                0x0807dc80                __mbrtowc
 .text          0x0807ddd0      0x171 C:\Projects\AADS\xCore/3rdparty/linux/lib/libc.a(wcrtomb.o)
                0x0807ddd0                __wcrtomb
                0x0807ddd0                wcrtomb
 *fill*         0x0807df41        0xf 9090
 .text          0x0807df50      0x274 C:\Projects\AADS\xCore/3rdparty/linux/lib/libc.a(wcsrtombs.o)
                0x0807df50                wcsrtombs
                0x0807df50                __wcsrtombs
 *fill*         0x0807e1c4        0xc 9090
 .text          0x0807e1d0      0x259 C:\Projects\AADS\xCore/3rdparty/linux/lib/libc.a(mbsnrtowcs.o)
                0x0807e1d0                mbsnrtowcs
                0x0807e1d0                __mbsnrtowcs
 *fill*         0x0807e429        0x7 9090
 .text          0x0807e430       0x40 C:\Projects\AADS\xCore/3rdparty/linux/lib/libc.a(wcsnlen.o)
                0x0807e430                wcsnlen
                0x0807e430                __wcsnlen
 .text          0x0807e470      0xfbf C:\Projects\AADS\xCore/3rdparty/linux/lib/libc.a(tzset.o)
                0x0807f230                __tzset
                0x0807edb4                __tzname_max
                0x0807f290                __tz_convert
                0x0807e470                __tzstring
                0x0807f230                tzset
 *fill*         0x0807f42f        0x1 9090
 .text          0x0807f430      0xb7a C:\Projects\AADS\xCore/3rdparty/linux/lib/libc.a(tzfile.o)
                0x0807fb84                __tzfile_default
                0x0807fd88                __tzfile_compute
                0x0807f430                __tzfile_read
 *fill*         0x0807ffaa        0x6 9090
 .text          0x0807ffb0      0x1ac C:\Projects\AADS\xCore/3rdparty/linux/lib/libc.a(opendir.o)
                0x0808001c                __opendir
                0x0808001c                opendir
 *fill*         0x0808015c        0x4 9090
 .text          0x08080160       0x6c C:\Projects\AADS\xCore/3rdparty/linux/lib/libc.a(closedir.o)
                0x08080160                __closedir
                0x08080160                closedir
 *fill*         0x080801cc        0x4 9090
 .text          0x080801d0       0x84 C:\Projects\AADS\xCore/3rdparty/linux/lib/libc.a(readdir.o)
                0x080801d0                readdir
                0x080801d0                __readdir
 *fill*         0x08080254        0xc 9090
 .text          0x08080260      0x2f4 C:\Projects\AADS\xCore/3rdparty/linux/lib/libc.a(getdents.o)
                0x08080260                __getdents
 *fill*         0x08080554        0xc 9090
 .text          0x08080560       0x1f C:\Projects\AADS\xCore/3rdparty/linux/lib/libc.a(nanosleep.o)
                0x08080560                __libc_nanosleep
                0x08080560                nanosleep
                0x08080560                __nanosleep
 *fill*         0x0808057f        0x1 9090
 .text          0x08080580       0x13 C:\Projects\AADS\xCore/3rdparty/linux/lib/libc.a(getpid.o)
                0x08080580                __getpid
                0x08080580                getpid
 *fill*         0x08080593        0x1 9090
 .text          0x08080594       0x69 C:\Projects\AADS\xCore/3rdparty/linux/lib/libc.a(getuid.o)
                0x08080594                getuid
                0x08080594                __getuid
 *fill*         0x080805fd        0x3 9090
 .text          0x08080600       0x69 C:\Projects\AADS\xCore/3rdparty/linux/lib/libc.a(geteuid.o)
                0x08080600                geteuid
                0x08080600                __geteuid
 *fill*         0x08080669        0x3 9090
 .text          0x0808066c       0x69 C:\Projects\AADS\xCore/3rdparty/linux/lib/libc.a(getgid.o)
                0x0808066c                getgid
                0x0808066c                __getgid
 *fill*         0x080806d5        0x3 9090
 .text          0x080806d8       0x69 C:\Projects\AADS\xCore/3rdparty/linux/lib/libc.a(getegid.o)
                0x080806d8                getegid
                0x080806d8                __getegid
 *fill*         0x08080741        0xf 9090
 .text          0x08080750       0xa3 C:\Projects\AADS\xCore/3rdparty/linux/lib/libc.a(getopt_init.o)
                0x08080750                __getopt_clean_environment
 *fill*         0x080807f3        0xd 9090
 .text          0x08080800      0x2cd C:\Projects\AADS\xCore/3rdparty/linux/lib/libc.a(lxstat.o)
                0x08080800                _lxstat
                0x08080800                __lxstat
 *fill*         0x08080acd        0x3 9090
 .text          0x08080ad0      0x17b C:\Projects\AADS\xCore/3rdparty/linux/lib/libc.a(xstat64.o)
                0x08080ad0                ___xstat64
                0x08080ad0                __xstat64
 *fill*         0x08080c4b        0x5 9090
 .text          0x08080c50       0x21 C:\Projects\AADS\xCore/3rdparty/linux/lib/libc.a(lseek.o)
                0x08080c50                lseek
                0x08080c50                __libc_lseek
 *fill*         0x08080c71        0xf 9090
 .text          0x08080c80       0x1f C:\Projects\AADS\xCore/3rdparty/linux/lib/libc.a(access.o)
                0x08080c80                access
                0x08080c80                __access
 *fill*         0x08080c9f        0x1 9090
 .text          0x08080ca0       0x21 C:\Projects\AADS\xCore/3rdparty/linux/lib/libc.a(isatty.o)
                0x08080ca0                isatty
                0x08080ca0                __isatty
 *fill*         0x08080cc1        0x3 9090
 .text          0x08080cc4       0x74 C:\Projects\AADS\xCore/3rdparty/linux/lib/libc.a(tcgetattr.o)
                0x08080cc4                __tcgetattr
                0x08080cc4                tcgetattr
 *fill*         0x08080d38        0x8 9090
 .text          0x08080d40       0xb1 C:\Projects\AADS\xCore/3rdparty/linux/lib/libc.a(getrlimit.o)
                0x08080d40                getrlimit
                0x08080d40                __new_getrlimit
                0x08080d40                __getrlimit
 *fill*         0x08080df1        0xf 9090
 .text          0x08080e00       0x43 C:\Projects\AADS\xCore/3rdparty/linux/lib/libc.a(brk.o)
                0x08080e00                __brk
                0x08080e00                brk
 *fill*         0x08080e43        0xd 9090
 .text          0x08080e50       0x21 C:\Projects\AADS\xCore/3rdparty/linux/lib/libc.a(ioctl.o)
                0x08080e50                ioctl
                0x08080e50                __ioctl
 *fill*         0x08080e71        0xf 9090
 .text          0x08080e80      0x74b C:\Projects\AADS\xCore/3rdparty/linux/lib/libc.a(mntent_r.o)
                0x08080e98                __endmntent
                0x08080f24                __getmntent_r
                0x08081558                __hasmntopt
                0x08081558                hasmntopt
                0x08080f24                getmntent_r
                0x080812bc                addmntent
                0x08080e80                setmntent
                0x08080e98                endmntent
                0x08080e80                __setmntent
                0x080812bc                __addmntent
 *fill*         0x080815cb        0x5 9090
 .text          0x080815d0       0x39 C:\Projects\AADS\xCore/3rdparty/linux/lib/libc.a(init-misc.o)
 *fill*         0x08081609        0x3 9090
 .text          0x0808160c       0x37 C:\Projects\AADS\xCore/3rdparty/linux/lib/libc.a(dl-profstub.o)
                0x0808160c                _dl_mcount_wrapper
                0x08081624                _dl_mcount_wrapper_check
 *fill*         0x08081643        0xd 9090
 .text          0x08081650      0x1ae C:\Projects\AADS\xCore/3rdparty/linux/lib/libc.a(dl-libc.o)
                0x0808170c                __libc_dlopen
                0x0808176c                __libc_dlclose
                0x08081738                __libc_dlsym
 *fill*         0x080817fe        0x2 9090
 .text          0x08081800        0xd C:\Projects\AADS\xCore/3rdparty/linux/lib/libc.a(mb_cur_max.o)
                0x08081800                __ctype_get_mb_cur_max
 *fill*         0x0808180d        0x3 9090
 .text          0x08081810       0x2f C:\Projects\AADS\xCore/3rdparty/linux/lib/libc.a(s_isinf.o)
                0x08081810                __isinf
                0x08081810                isinf
 *fill*         0x0808183f        0x1 9090
 .text          0x08081840       0x4b C:\Projects\AADS\xCore/3rdparty/linux/lib/libc.a(s_isinfl.o)
                0x08081840                isinfl
                0x08081840                __isinfl
 *fill*         0x0808188b        0x1 9090
 .text          0x0808188c       0x3c C:\Projects\AADS\xCore/3rdparty/linux/lib/libc.a(s_isnanl.o)
                0x0808188c                __isnanl
                0x0808188c                isnanl
 *fill*         0x080818c8        0x8 9090
 .text          0x080818d0       0x36 C:\Projects\AADS\xCore/3rdparty/linux/lib/libc.a(cmp.o)
                0x080818d0                __mpn_cmp
 *fill*         0x08081906        0xa 9090
 .text          0x08081910      0x323 C:\Projects\AADS\xCore/3rdparty/linux/lib/libc.a(divrem.o)
                0x08081910                __mpn_divrem
 *fill*         0x08081c33        0xd 9090
 .text          0x08081c40       0x57 C:\Projects\AADS\xCore/3rdparty/linux/lib/libc.a(lshift.o)
                0x08081c40                __mpn_lshift
 *fill*         0x08081c97        0x9 9090
 .text          0x08081ca0       0x57 C:\Projects\AADS\xCore/3rdparty/linux/lib/libc.a(rshift.o)
                0x08081ca0                __mpn_rshift
 *fill*         0x08081cf7        0x9 9090
 .text          0x08081d00      0x2b8 C:\Projects\AADS\xCore/3rdparty/linux/lib/libc.a(mul.o)
                0x08081d00                __mpn_mul
 *fill*         0x08081fb8        0x8 9090
 .text          0x08081fc0       0x39 C:\Projects\AADS\xCore/3rdparty/linux/lib/libc.a(mul_1.o)
                0x08081fc0                __mpn_mul_1
 *fill*         0x08081ff9        0x7 9090
 .text          0x08082000      0x847 C:\Projects\AADS\xCore/3rdparty/linux/lib/libc.a(mul_n.o)
                0x08082000                __mpn_impn_mul_n_basecase
                0x08082444                __mpn_impn_sqr_n_basecase
                0x080827d4                __mpn_mul_n
                0x080824f4                __mpn_impn_sqr_n
                0x080820b4                __mpn_impn_mul_n
 *fill*         0x08082847        0x9 9090
 .text          0x08082850       0x90 C:\Projects\AADS\xCore/3rdparty/linux/lib/libc.a(sub_n.o)
                0x08082850                __mpn_sub_n
 .text          0x080828e0       0x3c C:\Projects\AADS\xCore/3rdparty/linux/lib/libc.a(submul_1.o)
                0x080828e0                __mpn_submul_1
 *fill*         0x0808291c        0x4 9090
 .text          0x08082920      0x103 C:\Projects\AADS\xCore/3rdparty/linux/lib/libc.a(dbl2mpn.o)
                0x08082920                __mpn_extract_double
 *fill*         0x08082a23        0xd 9090
 .text          0x08082a30       0xf1 C:\Projects\AADS\xCore/3rdparty/linux/lib/libc.a(ldbl2mpn.o)
                0x08082a30                __mpn_extract_long_double
 *fill*         0x08082b21        0x3 9090
 *fill*         0x08082b24        0xc 9090
 .text          0x08082b30      0x1d3 C:\Projects\AADS\xCore/3rdparty/linux/lib/libc.a(_itoa.o)
                0x08082b30                _itoa
 *fill*         0x08082d03        0xd 9090
 .text          0x08082d10      0x1e0 C:\Projects\AADS\xCore/3rdparty/linux/lib/libc.a(_itowa.o)
                0x08082d10                _itowa
 .text          0x08082ef0     0x445c C:\Projects\AADS\xCore/3rdparty/linux/lib/libc.a(vfscanf.o)
                0x08082ef0                _IO_vfscanf
                0x08087334                vfscanf
                0x08087334                __vfscanf
 *fill*         0x0808734c        0x4 9090
 .text          0x08087350       0x4a C:\Projects\AADS\xCore/3rdparty/linux/lib/libc.a(iofread_u.o)
                0x08087350                fread_unlocked
 *fill*         0x0808739a        0x6 9090
 .text          0x080873a0       0x2e C:\Projects\AADS\xCore/3rdparty/linux/lib/libc.a(wcslen.o)
                0x080873a0                wcslen
                0x080873a0                __wcslen
 *fill*         0x080873ce        0x2 9090
 .text          0x080873d0       0x18 C:\Projects\AADS\xCore/3rdparty/linux/lib/libc.a(mbsinit.o)
                0x080873d0                __mbsinit
                0x080873d0                mbsinit
 *fill*         0x080873e8        0x8 9090
 .text          0x080873f0      0x370 C:\Projects\AADS\xCore/3rdparty/linux/lib/libc.a(offtime.o)
                0x080873f0                __offtime
 .text          0x08087760       0x32 C:\Projects\AADS\xCore/3rdparty/linux/lib/libc.a(localtime.o)
                0x08087760                __localtime_r
                0x08087778                localtime
                0x08087760                localtime_r
 *fill*         0x08087792        0xe 9090
 .text          0x080877a0      0x5d7 C:\Projects\AADS\xCore/3rdparty/linux/lib/libc.a(mktime.o)
                0x08087d50                mktime
                0x08087d50                timelocal
                0x08087980                __mktime_internal
 *fill*         0x08087d77        0x9 9090
 .text          0x08087d80      0x972 C:\Projects\AADS\xCore/3rdparty/linux/lib/libc.a(dl-profile.o)
                0x08087d80                _dl_start_profile
                0x08088518                _dl_mcount
 *fill*         0x080886f2        0xe 9090
 .text          0x08088700      0x67b C:\Projects\AADS\xCore/3rdparty/linux/lib/libc.a(dl-open.o)
                0x08088c10                _dl_open
 *fill*         0x08088d7b        0x5 9090
 .text          0x08088d80      0x635 C:\Projects\AADS\xCore/3rdparty/linux/lib/libc.a(dl-close.o)
                0x08088d80                _dl_close
 *fill*         0x080893b5        0xb 9090
 .text          0x080893c0      0x768 C:\Projects\AADS\xCore/3rdparty/linux/lib/libc.a(strtoll.o)
                0x080893c0                __strtoll_internal
                0x08089b10                strtoll
                0x08089b10                strtoq
 *fill*         0x08089b28        0x8 9090
 .text          0x08089b30      0x720 C:\Projects\AADS\xCore/3rdparty/linux/lib/libc.a(strtoull.o)
                0x08089b30                __strtoull_internal
                0x0808a238                strtoull
                0x0808a238                strtouq
 .text          0x0808a250     0x2f28 C:\Projects\AADS\xCore/3rdparty/linux/lib/libc.a(strtof.o)
                0x0808d160                strtof
                0x0808a250                __strtof_internal
 *fill*         0x0808d178        0x8 9090
 .text          0x0808d180     0x3780 C:\Projects\AADS\xCore/3rdparty/linux/lib/libc.a(strtod.o)
                0x0808d180                __strtod_internal
                0x080908e8                strtod
 .text          0x08090900     0x3790 C:\Projects\AADS\xCore/3rdparty/linux/lib/libc.a(strtold.o)
                0x08094078                strtold
                0x08090900                __strtold_internal
 .text          0x08094090       0x90 C:\Projects\AADS\xCore/3rdparty/linux/lib/libc.a(add_n.o)
                0x08094090                __mpn_add_n
 .text          0x08094120       0x3c C:\Projects\AADS\xCore/3rdparty/linux/lib/libc.a(addmul_1.o)
                0x08094120                __mpn_addmul_1
 .text          0x0809415c       0x44 C:\Projects\AADS\xCore/3rdparty/linux/lib/libc.a(mpn2flt.o)
                0x0809415c                __mpn_construct_float
 .text          0x080941a0       0x5b C:\Projects\AADS\xCore/3rdparty/linux/lib/libc.a(mpn2dbl.o)
                0x080941a0                __mpn_construct_double
 *fill*         0x080941fb        0x1 9090
 .text          0x080941fc       0x43 C:\Projects\AADS\xCore/3rdparty/linux/lib/libc.a(mpn2ldbl.o)
                0x080941fc                __mpn_construct_long_double
 *fill*         0x0809423f        0x1 9090
 .text          0x08094240       0x80 C:\Projects\AADS\xCore/3rdparty/linux/lib/libc.a(strncpy.o)
                0x08094240                strncpy
 .text          0x080942c0       0x12 C:\Projects\AADS\xCore/3rdparty/linux/lib/libc.a(ffs.o)
                0x080942c0                __ffs
                0x080942c0                ffsl
                0x080942c0                ffs
 *fill*         0x080942d2        0xe 9090
 .text          0x080942e0       0x5a C:\Projects\AADS\xCore/3rdparty/linux/lib/libc.a(strncase.o)
                0x080942e0                __strncasecmp
                0x080942e0                strncasecmp
 *fill*         0x0809433a        0x6 9090
 .text          0x08094340      0x18f C:\Projects\AADS\xCore/3rdparty/linux/lib/libc.a(profil.o)
                0x08094378                __profil
                0x08094378                profil
 *fill*         0x080944cf        0x1 9090
 .text          0x080944d0       0x5d C:\Projects\AADS\xCore/3rdparty/linux/lib/libc.a(prof-freq.o)
                0x080944d0                __profile_frequency
 *fill*         0x0809452d        0x3 9090
 .text          0x08094530      0x7ea C:\Projects\AADS\xCore/3rdparty/linux/lib/libc.a(dl-reloc.o)
                0x08094ca4                _dl_reloc_bad_type
                0x08094530                _dl_relocate_object
 *fill*         0x08094d1a        0x6 9090
 .text          0x08094d20      0xb62 C:\Projects\AADS\xCore/3rdparty/linux/lib/libc.a(dl-deps.o)
                0x08094d64                _dl_map_object_deps
 *fill*         0x08095882        0xe 9090
 .text          0x08095890      0x26c C:\Projects\AADS\xCore/3rdparty/linux/lib/libc.a(dl-runtime.o)
                0x08095ac0                _dl_runtime_resolve
                0x08095ae0                _dl_runtime_profile
 *fill*         0x08095afc        0x4 9090
 .text          0x08095b00      0x1f7 C:\Projects\AADS\xCore/3rdparty/linux/lib/libc.a(dl-init.o)
                0x08095bd8                _dl_init
 *fill*         0x08095cf7        0x1 9090
 .text          0x08095cf8       0x3d C:\Projects\AADS\xCore/3rdparty/linux/lib/libc.a(dl-debug.o)
                0x08095d30                _dl_debug_state
                0x08095cf8                _dl_debug_initialize
 *fill*         0x08095d35        0xb 9090
 .text          0x08095d40      0x7f1 C:\Projects\AADS\xCore/3rdparty/linux/lib/libc.a(dl-version.o)
                0x08096098                _dl_check_map_versions
                0x080964e4                _dl_check_all_versions
 *fill*         0x08096531        0xf 9090
 .text          0x08096540       0x36 C:\Projects\AADS\xCore/3rdparty/linux/lib/libc.a(sigfillset.o)
                0x08096540                sigfillset
 *fill*         0x08096576        0xa 9090
 .text          0x08096580       0x21 C:\Projects\AADS\xCore/3rdparty/linux/lib/libc.a(setitimer.o)
                0x08096580                setitimer
                0x08096580                __setitimer
 *fill*         0x080965a1        0xf 9090
 .text          0x080965b0      0x521 C:\Projects\AADS\xCore/3rdparty/linux/lib/libpthread.a(cancel.o)
                0x080968d4                _pthread_cleanup_pop
                0x0809670c                pthread_cancel
                0x080967f8                pthread_testcancel
                0x080969c8                _pthread_cleanup_pop_restore
                0x080965b0                pthread_setcancelstate
                0x08096a68                __pthread_perform_cleanup
                0x0809694c                _pthread_cleanup_push_defer
                0x08096864                _pthread_cleanup_push
                0x0809665c                pthread_setcanceltype
 *fill*         0x08096ad1        0xf 9090
 .text          0x08096ae0      0xc26 C:\Projects\AADS\xCore/3rdparty/linux/lib/libpthread.a(manager.o)
                0x08096d24                __pthread_manager_event
                0x08097658                __pthread_manager_sighandler
                0x080976bc                __pthread_manager_adjust_prio
                0x08096ae0                __pthread_manager
 *fill*         0x08097706        0xa 9090
 .text          0x08097710     0x113c C:\Projects\AADS\xCore/3rdparty/linux/lib/libpthread.a(pthread.o)
                0x08097fc0                pthread_yield
                0x08098718                __pthread_restart_new
                0x08097cd4                pthread_create
                0x08097e2c                __pthread_find_self
                0x080977fc                __libc_current_sigrtmax
                0x0809820c                __pthread_reset_main_thread
                0x08097e18                pthread_equal
                0x080977e0                __libc_current_sigrtmin
                0x08097a68                __pthread_initialize_manager
                0x08098328                pthread_kill_other_threads_np
                0x08098328                __pthread_kill_other_threads_np
                0x08097a58                __pthread_initialize
                0x08097fc0                __pthread_yield
                0x08097818                __libc_allocate_rtsig
                0x08097f18                pthread_getschedparam
                0x080983d0                __pthread_wait_for_restart_signal
                0x080983b4                __pthread_setconcurrency
                0x08097e4c                pthread_setschedparam
                0x0809790c                __pthread_initialize_minimal
                0x08098494                __pthread_suspend_old
                0x080984fc                __pthread_timedsuspend_old
                0x080983c4                __pthread_getconcurrency
                0x08097dc8                pthread_self
                0x08098428                __pthread_restart_old
                0x08097cd4                __pthread_create_2_1
                0x08098734                __pthread_timedsuspend_new
 *fill*         0x0809884c        0x4 9090
 .text          0x08098850      0x4b8 C:\Projects\AADS\xCore/3rdparty/linux/lib/libpthread.a(specific.o)
                0x08098a9c                pthread_getspecific
                0x08098850                __pthread_key_create
                0x080988c8                pthread_key_delete
                0x08098a9c                __pthread_getspecific
                0x08098b1c                __pthread_destroy_specifics
                0x08098850                pthread_key_create
                0x080989d0                __pthread_setspecific
                0x080989d0                pthread_setspecific
 *fill*         0x08098d08        0x8 9090
 .text          0x08098d10      0x71a C:\Projects\AADS\xCore/3rdparty/linux/lib/libpthread.a(semaphore.o)
                0x08099164                __new_sem_destroy
                0x080991d4                sem_timedwait
                0x08098d10                __new_sem_init
                0x08099164                sem_destroy
                0x08099018                __new_sem_post
                0x08098e08                sem_wait
                0x08099018                sem_post
                0x080991bc                sem_unlink
                0x08098e08                __new_sem_wait
                0x08098d10                sem_init
                0x080991a4                sem_close
                0x08098fcc                sem_trywait
                0x08098fcc                __new_sem_trywait
                0x0809918c                sem_open
                0x08099150                __new_sem_getvalue
                0x08099150                sem_getvalue
 *fill*         0x0809942a        0x6 9090
 .text          0x08099430      0x821 C:\Projects\AADS\xCore/3rdparty/linux/lib/libpthread.a(spinlock.o)
                0x08099430                __pthread_lock
                0x08099a78                __pthread_alt_unlock
                0x080997a4                __pthread_alt_lock
                0x08099bb8                __pthread_compare_and_swap
                0x080995b4                __pthread_unlock
                0x080998e4                __pthread_alt_timedlock
 *fill*         0x08099c51        0x3 9090
 .text          0x08099c54      0x7a7 C:\Projects\AADS\xCore/3rdparty/linux/lib/libpthread.a(wrapsyscall.o)
                0x0809a114                waitpid
                0x08099eb8                pause
                0x0809a234                recv
                0x0809a1ec                connect
                0x0809a15c                __write
                0x08099fc8                pwrite64
                0x0809a018                __read
                0x0809a060                system
                0x08099e30                __open
                0x0809a27c                recvfrom
                0x0809a09c                tcdrain
                0x0809a0d8                __wait
                0x0809a318                send
                0x0809a1a4                accept
                0x0809a318                __send
                0x0809a0d8                wait
                0x08099f30                pread64
                0x0809a360                sendmsg
                0x08099f30                __pread64
                0x0809a3a8                sendto
                0x08099d10                __lseek
                0x08099da4                msync
                0x08099cd4                fsync
                0x0809a1ec                __connect
                0x08099ee8                pread
                0x08099c54                __close
                0x08099fc8                __pwrite64
                0x08099c90                __fcntl
                0x0809a2d0                recvmsg
                0x08099e74                __open64
                0x08099f80                pwrite
 *fill*         0x0809a3fb        0x1 9090
 .text          0x0809a3fc       0x15 C:\Projects\AADS\xCore/3rdparty/linux/lib/libpthread.a(events.o)
                0x0809a3fc                __linuxthreads_create_event
                0x0809a404                __linuxthreads_death_event
                0x0809a40c                __linuxthreads_reap_event
 *fill*         0x0809a411        0x3 9090
 .text          0x0809a414     0x1214 .\Linux-debug\main.obj
                0x0809a698                ParseLookupResponse(net_address &, lookup_response *)
                0x0809a594                SendLookupRequest(lookup_client &)
                0x0809b2ac                main
                0x0809a414                BeginLookupRequest(void)
                0x0809a7cc                ResolveMasterServer(void)
                0x0809a848                AcquireServerList(void)
                0x0809af88                GetServerResponses(void)
 .text          0x0809b628     0x16a4 \Projects\AADS\Support\netlib\Linux-Debug\NetLib.lib(NetCommon.obj)
                0x0809c154                net_address::GetBlocking(void)
                0x0809bfd4                net_address::net_address(void)
                0x0809cc04                net_Decrypt(unsigned char *, int &, int)
                0x0809c9d8                net_AddressToStr(unsigned int, char *)
                0x0809c0e4                net_address::SetStrAddress(char *)
                0x0809cb38                operator==(net_address const &, net_address const &)
                0x0809bf8c                net_address::Clear(void)
                0x0809c0bc                net_address::GetStrAddress(char *)
                0x0809c210                net_IPToStr(unsigned int, char *)
                0x0809c10c                net_address::SetBlocking(int)
                0x0809bfb4                net_address::IsEmpty(void)
                0x0809c074                net_address::GetStrIP(char *)
                0x0809cb68                net_Encrypt(unsigned char *, int &, int)
                0x0809c370                net_StrToAddress(char const *, unsigned int &, unsigned int &)
                0x0809c4d8                net_AddressToStr(unsigned int, unsigned int, char *)
                0x0809bff8                net_address::net_address(unsigned int, int, unsigned int)
                0x0809c16c                net_StrToIP(char const *)
                0x0809b6e4                net_Receive(net_address &, net_address &, void *, int &)
                0x0809b66c                net_Init(void)
                0x0809b6d0                net_Kill(void)
                0x0809c098                net_address::SetStrIP(char *)
                0x0809b628                net_Checksum(unsigned char *, int)
                0x0809c034                net_address::net_address(char *, int, unsigned int)
                0x0809bbb0                net_Send(net_address const &, net_address const &, void const *, int)
 .text          0x0809cccc      0x9c8 \Projects\AADS\Support\netlib\Linux-Debug\NetLib.lib(netlib.obj)
                0x0809d228                net_LinuxSend(net_address const &, net_address const &, void const *, int)
                0x0809d340                net_GetStats(unsigned int &, unsigned long long &, unsigned int &, unsigned long long &, unsigned int &, float &, float &)
                0x0809d674                net_GetAttachStatus(int &)
                0x0809d5cc                net_ResolveIP(unsigned int, char *)
                0x0809d338                net_ClearStats(void)
                0x0809d3c0                net_GetInterfaceInfo(int, interface_info &)
                0x0809d624                net_GetConnectStatus(connect_status &)
                0x0809cde8                net_IsInited(void)
                0x0809cdfc                net_Bind(net_address &, unsigned int)
                0x0809cfb8                net_BindBroadcast(net_address &, unsigned int)
                0x0809cccc                net_LinuxInit(void)
                0x0809d688                net_GetSystemId(void)
                0x0809d644                net_GetConfigList(char const *, s_net_config_list *)
                0x0809cd7c                net_LinuxKill(void)
                0x0809d590                net_ResolveName(char const *)
                0x0809d668                net_SetConfiguration(char const *, int)
                0x0809d088                net_LinuxReceive(net_address &, net_address &, void *, int &)
                0x0809d00c                net_Unbind(net_address &)
                0x0809d61c                net_ActivateConfig(int)
 *fill*         0x0809d694        0xc 9090
 .text          0x0809d6a0      0x11a C:\Projects\AADS\xCore/3rdparty/linux/lib/libgcc.a(_udivdi3.o)
                0x0809d6a0                __udivdi3
 *fill*         0x0809d7ba        0x6 9090
 .text          0x0809d7c0      0x17d C:\Projects\AADS\xCore/3rdparty/linux/lib/libgcc.a(_umoddi3.o)
                0x0809d7c0                __umoddi3
 *fill*         0x0809d93d        0x3 9090
 .text          0x0809d940       0x23 C:\Projects\AADS\xCore/3rdparty/linux/lib/libc.a(setjmp.o)
                0x0809d940                __sigsetjmp
 *fill*         0x0809d963        0x1 9090
 .text          0x0809d964       0x36 C:\Projects\AADS\xCore/3rdparty/linux/lib/libc.a(sigjmp.o)
                0x0809d964                __sigjmp_save
 *fill*         0x0809d99a        0x2 9090
 .text          0x0809d99c       0x85 C:\Projects\AADS\xCore/3rdparty/linux/lib/libc.a(sigsuspend.o)
                0x0809d99c                __sigsuspend
                0x0809d99c                sigsuspend
 *fill*         0x0809da21        0xf 9090
 .text          0x0809da30       0x33 C:\Projects\AADS\xCore/3rdparty/linux/lib/libc.a(sigempty.o)
                0x0809da30                sigemptyset
 *fill*         0x0809da63        0xd 9090
 .text          0x0809da70       0x4a C:\Projects\AADS\xCore/3rdparty/linux/lib/libc.a(sigaddset.o)
                0x0809da70                sigaddset
 *fill*         0x0809daba        0x6 9090
 .text          0x0809dac0       0x4d C:\Projects\AADS\xCore/3rdparty/linux/lib/libc.a(sigdelset.o)
                0x0809dac0                sigdelset
 *fill*         0x0809db0d        0x3 9090
 .text          0x0809db10       0x2e C:\Projects\AADS\xCore/3rdparty/linux/lib/libc.a(on_exit.o)
                0x0809db10                __on_exit
                0x0809db10                on_exit
 *fill*         0x0809db3e        0x2 9090
 .text          0x0809db40      0x2a1 C:\Projects\AADS\xCore/3rdparty/linux/lib/libc.a(system.o)
                0x0809db40                __libc_system
 *fill*         0x0809dde1        0xf 9090
 .text          0x0809ddf0      0x157 C:\Projects\AADS\xCore/3rdparty/linux/lib/libc.a(strverscmp.o)
                0x0809ddf0                __strverscmp
                0x0809ddf0                strverscmp
 *fill*         0x0809df47        0x1 9090
 .text          0x0809df48       0x1d C:\Projects\AADS\xCore/3rdparty/linux/lib/libc.a(strerror.o)
                0x0809df48                strerror
 *fill*         0x0809df65        0xb 9090
 .text          0x0809df70       0x1b C:\Projects\AADS\xCore/3rdparty/linux/lib/libc.a(uname.o)
                0x0809df70                uname
                0x0809df70                __uname
 *fill*         0x0809df8b        0x1 9090
 .text          0x0809df8c       0x16 C:\Projects\AADS\xCore/3rdparty/linux/lib/libc.a(wait.o)
                0x0809df8c                __libc_wait
 *fill*         0x0809dfa2        0x2 9090
 .text          0x0809dfa4       0x18 C:\Projects\AADS\xCore/3rdparty/linux/lib/libc.a(waitpid.o)
                0x0809dfa4                __libc_waitpid
                0x0809dfa4                __waitpid
 *fill*         0x0809dfbc        0x4 9090
 .text          0x0809dfc0       0x27 C:\Projects\AADS\xCore/3rdparty/linux/lib/libc.a(wait4.o)
                0x0809dfc0                __wait4
                0x0809dfc0                wait4
 *fill*         0x0809dfe7        0x9 9090
 .text          0x0809dff0       0x13 C:\Projects\AADS\xCore/3rdparty/linux/lib/libc.a(pause.o)
                0x0809dff0                __libc_pause
 *fill*         0x0809e003        0xd 9090
 .text          0x0809e010       0x13 C:\Projects\AADS\xCore/3rdparty/linux/lib/libc.a(fork.o)
                0x0809e010                fork
                0x0809e010                __libc_fork
                0x0809e010                __fork
 *fill*         0x0809e023        0x1 9090
 .text          0x0809e024       0x48 C:\Projects\AADS\xCore/3rdparty/linux/lib/libc.a(execve.o)
                0x0809e024                execve
                0x0809e024                __execve
 *fill*         0x0809e06c        0x4 9090
 .text          0x0809e070       0x13 C:\Projects\AADS\xCore/3rdparty/linux/lib/libc.a(getppid.o)
                0x0809e070                __getppid
                0x0809e070                getppid
 *fill*         0x0809e083        0xd 9090
 .text          0x0809e090       0x1f C:\Projects\AADS\xCore/3rdparty/linux/lib/libc.a(sched_getp.o)
                0x0809e090                __sched_getparam
                0x0809e090                sched_getparam
 *fill*         0x0809e0af        0x1 9090
 .text          0x0809e0b0       0x21 C:\Projects\AADS\xCore/3rdparty/linux/lib/libc.a(sched_sets.o)
                0x0809e0b0                sched_setscheduler
                0x0809e0b0                __sched_setscheduler
 *fill*         0x0809e0d1        0xf 9090
 .text          0x0809e0e0       0x1b C:\Projects\AADS\xCore/3rdparty/linux/lib/libc.a(sched_gets.o)
                0x0809e0e0                sched_getscheduler
                0x0809e0e0                __sched_getscheduler
 *fill*         0x0809e0fb        0x5 9090
 .text          0x0809e100       0x13 C:\Projects\AADS\xCore/3rdparty/linux/lib/libc.a(sched_yield.o)
                0x0809e100                __sched_yield
                0x0809e100                sched_yield
 *fill*         0x0809e113        0xd 9090
 .text          0x0809e120       0x1b C:\Projects\AADS\xCore/3rdparty/linux/lib/libc.a(sched_primax.o)
                0x0809e120                __sched_get_priority_max
                0x0809e120                sched_get_priority_max
 *fill*         0x0809e13b        0x5 9090
 .text          0x0809e140       0xf2 C:\Projects\AADS\xCore/3rdparty/linux/lib/libc.a(pread.o)
                0x0809e140                __libc_pread
                0x0809e140                __pread
 *fill*         0x0809e232        0xe 9090
 .text          0x0809e240       0xf2 C:\Projects\AADS\xCore/3rdparty/linux/lib/libc.a(pwrite.o)
                0x0809e240                __pwrite
                0x0809e240                __libc_pwrite
 *fill*         0x0809e332        0xe 9090
 .text          0x0809e340      0x12e C:\Projects\AADS\xCore/3rdparty/linux/lib/libc.a(pread64.o)
                0x0809e340                __libc_pread64
 *fill*         0x0809e46e        0x2 9090
 .text          0x0809e470      0x12e C:\Projects\AADS\xCore/3rdparty/linux/lib/libc.a(pwrite64.o)
                0x0809e470                __libc_pwrite64
 *fill*         0x0809e59e        0x2 9090
 .text          0x0809e5a0       0x1b C:\Projects\AADS\xCore/3rdparty/linux/lib/libc.a(pipe.o)
                0x0809e5a0                pipe
                0x0809e5a0                __pipe
 *fill*         0x0809e5bb        0x5 9090
 .text          0x0809e5c0      0x500 C:\Projects\AADS\xCore/3rdparty/linux/lib/libc.a(poll.o)
                0x0809e5c0                __poll
                0x0809e5c0                poll
 .text          0x0809eac0       0x1a C:\Projects\AADS\xCore/3rdparty/linux/lib/libc.a(tcdrain.o)
                0x0809eac0                __libc_tcdrain
 *fill*         0x0809eada        0x6 9090
 .text          0x0809eae0       0xd2 C:\Projects\AADS\xCore/3rdparty/linux/lib/libc.a(setrlimit.o)
                0x0809eae0                __setrlimit
                0x0809eae0                setrlimit
                0x0809eae0                __new_setrlimit
 *fill*         0x0809ebb2        0xe 9090
 .text          0x0809ebc0       0x68 C:\Projects\AADS\xCore/3rdparty/linux/lib/libc.a(gethostname.o)
                0x0809ebc0                __gethostname
                0x0809ebc0                gethostname
 *fill*         0x0809ec28        0x8 9090
 .text          0x0809ec30       0x2d C:\Projects\AADS\xCore/3rdparty/linux/lib/libc.a(select.o)
                0x0809ec30                __select
                0x0809ec30                select
 *fill*         0x0809ec5d        0x3 9090
 .text          0x0809ec60       0x1b C:\Projects\AADS\xCore/3rdparty/linux/lib/libc.a(fsync.o)
                0x0809ec60                __libc_fsync
 *fill*         0x0809ec7b        0x5 9090
 .text          0x0809ec80       0x21 C:\Projects\AADS\xCore/3rdparty/linux/lib/libc.a(msync.o)
                0x0809ec80                __libc_msync
 *fill*         0x0809eca1        0x3 9090
 .text          0x0809eca4       0x69 C:\Projects\AADS\xCore/3rdparty/linux/lib/libc.a(sysctl.o)
                0x0809eca4                __sysctl
                0x0809eca4                sysctl
 *fill*         0x0809ed0d        0x3 9090
 .text          0x0809ed10       0x50 C:\Projects\AADS\xCore/3rdparty/linux/lib/libc.a(clone.o)
                0x0809ed10                __clone
                0x0809ed10                clone
 .text          0x0809ed60       0x1e C:\Projects\AADS\xCore/3rdparty/linux/lib/libc.a(accept.o)
                0x0809ed60                __libc_accept
 *fill*         0x0809ed7e        0x2 9090
 .text          0x0809ed80       0x1e C:\Projects\AADS\xCore/3rdparty/linux/lib/libc.a(bind.o)
                0x0809ed80                bind
 *fill*         0x0809ed9e        0x2 9090
 .text          0x0809eda0       0x1e C:\Projects\AADS\xCore/3rdparty/linux/lib/libc.a(connect.o)
                0x0809eda0                __libc_connect
 *fill*         0x0809edbe        0x2 9090
 .text          0x0809edc0       0x1e C:\Projects\AADS\xCore/3rdparty/linux/lib/libc.a(recv.o)
                0x0809edc0                __libc_recv
                0x0809edc0                __recv
 *fill*         0x0809edde        0x2 9090
 .text          0x0809ede0       0x1e C:\Projects\AADS\xCore/3rdparty/linux/lib/libc.a(recvfrom.o)
                0x0809ede0                __libc_recvfrom
 *fill*         0x0809edfe        0x2 9090
 .text          0x0809ee00       0x1e C:\Projects\AADS\xCore/3rdparty/linux/lib/libc.a(recvmsg.o)
                0x0809ee00                __libc_recvmsg
 *fill*         0x0809ee1e        0x2 9090
 .text          0x0809ee20       0x1e C:\Projects\AADS\xCore/3rdparty/linux/lib/libc.a(send.o)
                0x0809ee20                __libc_send
 *fill*         0x0809ee3e        0x2 9090
 .text          0x0809ee40       0x1e C:\Projects\AADS\xCore/3rdparty/linux/lib/libc.a(sendmsg.o)
                0x0809ee40                __libc_sendmsg
 *fill*         0x0809ee5e        0x2 9090
 .text          0x0809ee60       0x1e C:\Projects\AADS\xCore/3rdparty/linux/lib/libc.a(sendto.o)
                0x0809ee60                __libc_sendto
 *fill*         0x0809ee7e        0x2 9090
 .text          0x0809ee80       0x1e C:\Projects\AADS\xCore/3rdparty/linux/lib/libc.a(setsockopt.o)
                0x0809ee80                setsockopt
 *fill*         0x0809ee9e        0x2 9090
 .text          0x0809eea0       0x1e C:\Projects\AADS\xCore/3rdparty/linux/lib/libc.a(socket.o)
                0x0809eea0                socket
                0x0809eea0                __socket
 *fill*         0x0809eebe        0x2 9090
 .text          0x0809eec0       0x71 C:\Projects\AADS\xCore/3rdparty/linux/lib/libc.a(res_libc.o)
                0x0809eecc                __res_init
                0x0809eec0                __res_state
 *fill*         0x0809ef31        0xf 9090
 .text          0x0809ef40       0x10 C:\Projects\AADS\xCore/3rdparty/linux/lib/libc.a(htonl.o)
                0x0809ef40                ntohl
                0x0809ef40                htonl
 .text          0x0809ef50        0xe C:\Projects\AADS\xCore/3rdparty/linux/lib/libc.a(htons.o)
                0x0809ef50                ntohs
                0x0809ef50                htons
 *fill*         0x0809ef5e        0x2 9090
 .text          0x0809ef60        0xa C:\Projects\AADS\xCore/3rdparty/linux/lib/libc.a(herrno.o)
                0x0809ef60                __h_errno_location
 *fill*         0x0809ef6a        0x6 9090
 .text          0x0809ef70      0x142 C:\Projects\AADS\xCore/3rdparty/linux/lib/libc.a(gethstbyad.o)
                0x0809ef70                gethostbyaddr
 *fill*         0x0809f0b2        0xe 9090
 .text          0x0809f0c0      0x229 C:\Projects\AADS\xCore/3rdparty/linux/lib/libc.a(gethstbyad_r.o)
                0x0809f0c0                __gethostbyaddr_r
                0x0809f0c0                gethostbyaddr_r
 *fill*         0x0809f2e9        0x7 9090
 .text          0x0809f2f0      0x17e C:\Projects\AADS\xCore/3rdparty/linux/lib/libc.a(gethstbynm.o)
                0x0809f2f0                gethostbyname
 *fill*         0x0809f46e        0x2 9090
 .text          0x0809f470      0x1cb C:\Projects\AADS\xCore/3rdparty/linux/lib/libc.a(gethstbynm_r.o)
                0x0809f470                gethostbyname_r
                0x0809f470                __gethostbyname_r
 *fill*         0x0809f63b        0x1 9090
 *fill*         0x0809f63c        0x4 9090
 .text          0x0809f640      0x4ae C:\Projects\AADS\xCore/3rdparty/linux/lib/libc.a(nscd_gethst_r.o)
                0x0809f690                __nscd_gethostbyname2_r
                0x0809f6dc                __nscd_gethostbyaddr_r
                0x0809f640                __nscd_gethostbyname_r
 *fill*         0x0809faee        0x2 9090
 .text          0x0809faf0      0x104 C:\Projects\AADS\xCore/3rdparty/linux/lib/libc.a(readv.o)
                0x0809faf0                __readv
                0x0809faf0                readv
 *fill*         0x0809fbf4        0xc 9090
 .text          0x0809fc00      0xbf3 C:\Projects\AADS\xCore/3rdparty/linux/lib/libc.a(res_init.o)
                0x0809fc00                __res_ninit
                0x0809fc18                __res_vinit
                0x080a072c                __res_randomid
                0x080a075c                __res_nclose
 *fill*         0x080a07f3        0xd 9090
 .text          0x080a0800      0xaca C:\Projects\AADS\xCore/3rdparty/linux/lib/libc.a(res_hconf.o)
                0x080a11f0                _res_hconf_trim_domain
                0x080a0d00                _res_hconf_init
                0x080a1260                _res_hconf_trim_domains
                0x080a0ee4                _res_hconf_reorder_addrs
 *fill*         0x080a12ca        0x6 9090
 .text          0x080a12d0      0xaf4 C:\Projects\AADS\xCore/3rdparty/linux/lib/libc.a(nsswitch.o)
                0x080a1594                __nss_lookup_function
                0x080a141c                __nss_next
                0x080a13b8                __nss_lookup
                0x080a14cc                __nss_configure_lookup
                0x080a12d0                __nss_database_lookup
 *fill*         0x080a1dc4        0xc 9090
 .text          0x080a1dd0      0x504 C:\Projects\AADS\xCore/3rdparty/linux/lib/libc.a(digits_dots.o)
                0x080a1dd0                __nss_hostname_digits_dots
 *fill*         0x080a22d4        0xc 9090
 .text          0x080a22e0       0x52 C:\Projects\AADS\xCore/3rdparty/linux/lib/libc.a(hosts-lookup.o)
                0x080a22e0                __nss_hosts_lookup
 *fill*         0x080a2332        0xe 9090
 .text          0x080a2340      0x30b C:\Projects\AADS\xCore/3rdparty/linux/lib/libc.a(nscd_getgr_r.o)
                0x080a237c                __nscd_getgrgid_r
                0x080a2340                __nscd_getgrnam_r
 *fill*         0x080a264b        0x1 9090
 .text          0x080a264c       0x1a C:\Projects\AADS\xCore/3rdparty/linux/lib/libc.a(snprintf.o)
                0x080a264c                snprintf
                0x080a264c                __snprintf
 *fill*         0x080a2666        0x2 9090
 .text          0x080a2668       0x18 C:\Projects\AADS\xCore/3rdparty/linux/lib/libc.a(getline.o)
                0x080a2668                __getline
                0x080a2668                getline
 .text          0x080a2680       0xe3 C:\Projects\AADS\xCore/3rdparty/linux/lib/libc.a(vsnprintf.o)
                0x080a26cc                vsnprintf
                0x080a26cc                _IO_vsnprintf
                0x080a26cc                __vsnprintf
 *fill*         0x080a2763        0xd 9090
 .text          0x080a2770       0x53 C:\Projects\AADS\xCore/3rdparty/linux/lib/libc.a(libc_fatal.o)
                0x080a2770                __libc_fatal
 *fill*         0x080a27c3        0xd 9090
 .text          0x080a27d0      0x15f C:\Projects\AADS\xCore/3rdparty/linux/lib/libc.a(strchrnul.o)
                0x080a27d0                __strchrnul
                0x080a27d0                strchrnul
 *fill*         0x080a292f        0x1 9090
 .text          0x080a2930      0x106 C:\Projects\AADS\xCore/3rdparty/linux/lib/libc.a(writev.o)
                0x080a2930                writev
                0x080a2930                __writev
 *fill*         0x080a2a36        0x2 9090
 .text          0x080a2a38      0x131 C:\Projects\AADS\xCore/3rdparty/linux/lib/libc.a(opensock.o)
                0x080a2a38                __opensock
 *fill*         0x080a2b69        0x7 9090
 .text          0x080a2b70      0x11c C:\Projects\AADS\xCore/3rdparty/linux/lib/libc.a(inet_addr.o)
                0x080a2b70                inet_addr
                0x080a2b98                __inet_aton
                0x080a2b98                inet_aton
 *fill*         0x080a2c8c        0x4 9090
 .text          0x080a2c90      0x26d C:\Projects\AADS\xCore/3rdparty/linux/lib/libc.a(inet_pton.o)
                0x080a2c90                inet_pton
 *(.text.*)
 *(.stub)
 *(.gnu.warning)
 *(.gnu.linkonce.t.*)
 *fill*         0x080a2efd        0x3 9090
 .gnu.linkonce.t.x_pow__Fff
                0x080a2f00       0x30 \Projects\AADS\xCore\x_files\Linux-Debug\x_files.lib(x_plus.obj)
                0x080a2f00                x_pow(float, float)
 .gnu.linkonce.t.__7vector2ff
                0x080a2f30       0x1b \Projects\AADS\xCore\x_files\Linux-Debug\x_files.lib(x_plus.obj)
                0x080a2f30                vector2::vector2(float, float)
 *fill*         0x080a2f4b        0x1 9090
 .gnu.linkonce.t.__7vector3fff
                0x080a2f4c       0x21 \Projects\AADS\xCore\x_files\Linux-Debug\x_files.lib(x_plus.obj)
                0x080a2f4c                vector3::vector3(float, float, float)
 *fill*         0x080a2f6d        0x3 9090
 .gnu.linkonce.t.__6xcolorUcUcUcUc
                0x080a2f70       0x47 \Projects\AADS\xCore\x_files\Linux-Debug\x_files.lib(x_plus.obj)
                0x080a2f70                xcolor::xcolor(unsigned char, unsigned char, unsigned char, unsigned char)
 *fill*         0x080a2fb7        0x1 9090
 .gnu.linkonce.t.GetSystemId__7xthread
                0x080a2fb8       0x11 \Projects\AADS\xCore\x_files\Linux-Debug\x_files.lib(x_threads.obj)
                0x080a2fb8                xthread::GetSystemId(void)
 *fill*         0x080a2fc9        0x3 9090
 .gnu.linkonce.t.Enter__6xmutex
                0x080a2fcc       0x1f \Projects\AADS\xCore\x_files\Linux-Debug\x_files.lib(x_threads.obj)
                0x080a2fcc                xmutex::Enter(void)
 *fill*         0x080a2feb        0x1 9090
 .gnu.linkonce.t.Exit__6xmutex
                0x080a2fec       0x1f \Projects\AADS\xCore\x_files\Linux-Debug\x_files.lib(x_threads.obj)
                0x080a2fec                xmutex::Exit(void)
 *fill*         0x080a300b        0x1 9090
 .gnu.linkonce.t._._11thread_vars
                0x080a300c       0x4d \Projects\AADS\xCore\x_files\Linux-Debug\x_files.lib(x_threads.obj)
                0x080a300c                thread_vars::~thread_vars(void)
 *fill*         0x080a3059        0x3 9090
 .gnu.linkonce.t.__11thread_vars
                0x080a305c       0x30 \Projects\AADS\xCore\x_files\Linux-Debug\x_files.lib(x_threads.obj)
                0x080a305c                thread_vars::thread_vars(void)
 .gnu.linkonce.t.GetLength__C7xstring
                0x080a308c       0x1c \Projects\AADS\xCore\x_files\Linux-Debug\x_files.lib(x_string.obj)
                0x080a308c                xstring::GetLength(void) const
 .gnu.linkonce.t.__opPCc__C7xstring
                0x080a30a8       0x14 \Projects\AADS\xCore\x_files\Linux-Debug\x_files.lib(x_string.obj)
                0x080a30a8                xstring::operator char const *(void) const
 .gnu.linkonce.t.GetLength__C8xwstring
                0x080a30bc       0x1c \Projects\AADS\xCore\x_files\Linux-Debug\x_files.lib(x_string.obj)
                0x080a30bc                xwstring::GetLength(void) const
 .gnu.linkonce.t.__opPCUs__C8xwstring
                0x080a30d8       0x14 \Projects\AADS\xCore\x_files\Linux-Debug\x_files.lib(x_string.obj)
                0x080a30d8                xwstring::operator unsigned short const *(void) const
 .gnu.linkonce.t.GetId__7xthread
                0x080a30ec       0x11 \Projects\AADS\xCore\x_files\Linux-Debug\x_files.lib(x_files.obj)
                0x080a30ec                xthread::GetId(void)
 *fill*         0x080a30fd        0x3 9090
 .gnu.linkonce.t.GetGlobals__7xthread
                0x080a3100       0x11 \Projects\AADS\xCore\x_files\Linux-Debug\x_files.lib(x_files.obj)
                0x080a3100                xthread::GetGlobals(void)
 *fill*         0x080a3111        0x3 9090
 .gnu.linkonce.t.Clear__t6xarray1Z13lookup_client
                0x080a3114       0x4e .\Linux-debug\main.obj
                0x080a3114                xarray<lookup_client>::Clear(void)
 *fill*         0x080a3162        0x2 9090
 .gnu.linkonce.t.__13lookup_client
                0x080a3164       0x30 .\Linux-debug\main.obj
                0x080a3164                lookup_client::lookup_client(void)
 .gnu.linkonce.t.Append__t6xarray1Z13lookup_client
                0x080a3194      0x21a .\Linux-debug\main.obj
                0x080a3194                xarray<lookup_client>::Append(void)
 *fill*         0x080a33ae        0x2 9090
 .gnu.linkonce.t.Delete__t6xarray1Z13lookup_clientii
                0x080a33b0      0x188 .\Linux-debug\main.obj
                0x080a33b0                xarray<lookup_client>::Delete(int, int)
 .gnu.linkonce.t.__t6xarray1Z11net_address
                0x080a3538       0x29 .\Linux-debug\main.obj
                0x080a3538                xarray<net_address>::xarray(void)
 *fill*         0x080a3561        0x3 9090
 .gnu.linkonce.t._._t6xarray1Z11net_address
                0x080a3564       0x47 .\Linux-debug\main.obj
                0x080a3564                xarray<net_address>::~xarray(void)
 *fill*         0x080a35ab        0x1 9090
 .gnu.linkonce.t.__t6xarray1Z13lookup_client
                0x080a35ac       0x29 .\Linux-debug\main.obj
                0x080a35ac                xarray<lookup_client>::xarray(void)
 *fill*         0x080a35d5        0x3 9090
 .gnu.linkonce.t._._t6xarray1Z13lookup_client
                0x080a35d8       0x47 .\Linux-debug\main.obj
                0x080a35d8                xarray<lookup_client>::~xarray(void)
 *fill*         0x080a361f        0x1 9090
 .gnu.linkonce.t.GetCount__Ct6xarray1Z13lookup_client
                0x080a3620       0x11 .\Linux-debug\main.obj
                0x080a3620                xarray<lookup_client>::GetCount(void) const
 *fill*         0x080a3631        0x3 9090
 .gnu.linkonce.t.__vc__Ct6xarray1Z13lookup_clienti
                0x080a3634       0xd5 .\Linux-debug\main.obj
                0x080a3634                xarray<lookup_client>::operator[](int) const
 *fill*         0x080a3709        0x3 9090
 .gnu.linkonce.t.__17internet_settings
                0x080a370c       0x51 \Projects\AADS\Support\netlib\Linux-Debug\NetLib.lib(NetCommon.obj)
                0x080a370c                internet_settings::internet_settings(void)
 *fill*         0x080a375d        0x3 9090
 .gnu.linkonce.t.__10net_buffer
                0x080a3760       0x42 \Projects\AADS\Support\netlib\Linux-Debug\NetLib.lib(NetCommon.obj)
                0x080a3760                net_buffer::net_buffer(void)
 *fill*         0x080a37a2       0x1e 9090
 .gnu.warning.llseek
                0x080a37c0       0x3f C:\Projects\AADS\xCore/3rdparty/linux/lib/libc.a(llseek.o)
                                  0x0 (size before relaxing)

.fini           0x080a3800       0x1c
 *(.fini)
 .fini          0x080a3800       0x14 C:\Projects\AADS\xCore/3rdparty/linux/lib/crti.o
                0x080a3800                _fini
 .fini          0x080a3814        0x5 C:\Projects\AADS\xCore/3rdparty/linux/lib/crtbegin.o
 .fini          0x080a3819        0x3 C:\Projects\AADS\xCore/3rdparty/linux/lib/crtn.o
                0x080a381c                PROVIDE (__etext, .)
                0x080a381c                PROVIDE (_etext, .)
                0x080a381c                PROVIDE (etext, .)

.rodata         0x080a3820    0x13b61
 *(.rodata)
 .rodata        0x080a3820      0x4cf .\Linux-debug\bytestream.obj
 *fill*         0x080a3cef       0x11 00
 .rodata        0x080a3d00      0x678 \Projects\AADS\xCore\x_files\Linux-Debug\x_files.lib(x_plus.obj)
 *fill*         0x080a4378        0x8 00
 .rodata        0x080a4380      0x735 \Projects\AADS\xCore\x_files\Linux-Debug\x_files.lib(x_memory.obj)
 *fill*         0x080a4ab5        0xb 00
 .rodata        0x080a4ac0      0x161 \Projects\AADS\xCore\x_files\Linux-Debug\x_files.lib(x_debug.obj)
 *fill*         0x080a4c21       0x1f 00
 .rodata        0x080a4c40       0x98 \Projects\AADS\xCore\x_files\Linux-Debug\x_files.lib(x_time.obj)
 *fill*         0x080a4cd8        0x8 00
 .rodata        0x080a4ce0      0x8a1 \Projects\AADS\xCore\x_files\Linux-Debug\x_files.lib(x_threads.obj)
 *fill*         0x080a5581       0x1f 00
 .rodata        0x080a55a0      0x298 \Projects\AADS\xCore\x_files\Linux-Debug\x_files.lib(x_string.obj)
 *fill*         0x080a5838        0x8 00
 .rodata        0x080a5840      0x18a \Projects\AADS\xCore\x_files\Linux-Debug\x_files.lib(x_stdio.obj)
 *fill*         0x080a59ca       0x16 00
 .rodata        0x080a59e0       0x5a \Projects\AADS\xCore\x_files\Linux-Debug\x_files.lib(x_mutex.obj)
 *fill*         0x080a5a3a        0x6 00
 .rodata        0x080a5a40      0x6ba \Projects\AADS\xCore\x_files\Linux-Debug\x_files.lib(x_files.obj)
 *fill*         0x080a60fa        0x2 00
 .rodata        0x080a60fc        0x8 C:\Projects\AADS\xCore/3rdparty/linux/lib/crt1.o
                0x080a6100                _IO_stdin_used
 *fill*         0x080a6104       0x1c 00
 .rodata        0x080a6120      0x7ec C:\Projects\AADS\xCore/3rdparty/linux/lib/libm.a(k_standard.o)
 *fill*         0x080a690c        0x4 00
 .rodata        0x080a6910       0x30 C:\Projects\AADS\xCore/3rdparty/linux/lib/libm.a(e_pow.o)
 .rodata        0x080a6940        0xa C:\Projects\AADS\xCore/3rdparty/linux/lib/libc.a(check_fds.o)
 *fill*         0x080a694a       0x16 00
 .rodata        0x080a6960       0x47 C:\Projects\AADS\xCore/3rdparty/linux/lib/libc.a(assert.o)
 *fill*         0x080a69a7        0x1 00
 .rodata        0x080a69a8       0xd1 C:\Projects\AADS\xCore/3rdparty/linux/lib/libc.a(dcigettext.o)
                0x080a69b1                _nl_default_dirname
                0x080a69a8                _nl_default_default_domain
 *fill*         0x080a6a79        0x3 00
 .rodata        0x080a6a7c       0x58 C:\Projects\AADS\xCore/3rdparty/linux/lib/libc.a(loadmsgcat.o)
 .rodata        0x080a6ad4       0x22 C:\Projects\AADS\xCore/3rdparty/linux/lib/libc.a(localealias.o)
 .rodata        0x080a6af6        0x4 C:\Projects\AADS\xCore/3rdparty/linux/lib/libc.a(l10nflist.o)
 *fill*         0x080a6afa        0x2 00
 .rodata        0x080a6afc      0x54c C:\Projects\AADS\xCore/3rdparty/linux/lib/libc.a(plural.o)
 .rodata        0x080a7048       0x14 C:\Projects\AADS\xCore/3rdparty/linux/lib/libc.a(exit.o)
 .rodata        0x080a705c       0x44 C:\Projects\AADS\xCore/3rdparty/linux/lib/libc.a(wfileops.o)
 .rodata        0x080a70a0        0x6 C:\Projects\AADS\xCore/3rdparty/linux/lib/libc.a(fileops.o)
 *fill*         0x080a70a6       0x1a 00
 .rodata        0x080a70c0      0x180 C:\Projects\AADS\xCore/3rdparty/linux/lib/libc.a(malloc.o)
 .rodata        0x080a7240       0x2b C:\Projects\AADS\xCore/3rdparty/linux/lib/libc.a(wcsmbsload.o)
 *fill*         0x080a726b        0x1 00
 .rodata        0x080a726c      0x2c0 C:\Projects\AADS\xCore/3rdparty/linux/lib/libc.a(sysconf.o)
 *fill*         0x080a752c       0x14 00
 .rodata        0x080a7540      0x105 C:\Projects\AADS\xCore/3rdparty/linux/lib/libc.a(getcwd.o)
 .rodata        0x080a7645       0x5f C:\Projects\AADS\xCore/3rdparty/linux/lib/libc.a(getsysstats.o)
 *fill*         0x080a76a4       0x1c 00
 .rodata        0x080a76c0      0x8df C:\Projects\AADS\xCore/3rdparty/linux/lib/libc.a(dl-load.o)
                0x080a7766                _dl_pf_to_prot
 *fill*         0x080a7f9f        0x1 00
 .rodata        0x080a7fa0       0xbc C:\Projects\AADS\xCore/3rdparty/linux/lib/libc.a(dl-cache.o)
 *fill*         0x080a805c        0x4 00
 .rodata        0x080a8060      0x1e1 C:\Projects\AADS\xCore/3rdparty/linux/lib/libc.a(dl-lookup.o)
 *fill*         0x080a8241       0x1f 00
 .rodata        0x080a8260       0x80 C:\Projects\AADS\xCore/3rdparty/linux/lib/libc.a(dl-error.o)
                0x080a8260                _dl_out_of_memory
 .rodata        0x080a82e0       0x3c C:\Projects\AADS\xCore/3rdparty/linux/lib/libc.a(dl-misc.o)
 .rodata        0x080a831c      0x10c C:\Projects\AADS\xCore/3rdparty/linux/lib/libc.a(dl-support.o)
 .rodata        0x080a8428       0x11 C:\Projects\AADS\xCore/3rdparty/linux/lib/libc.a(dl-origin.o)
 .rodata        0x080a8439       0xf4 C:\Projects\AADS\xCore/3rdparty/linux/lib/libc.a(dl-procinfo.o)
                0x080a8519                _dl_x86_platforms
                0x080a8439                _dl_x86_cap_flags
 *fill*         0x080a852d       0x13 00
 .rodata        0x080a8540       0x60 C:\Projects\AADS\xCore/3rdparty/linux/lib/libc.a(init-first.o)
 .rodata        0x080a85a0       0x1b C:\Projects\AADS\xCore/3rdparty/linux/lib/libc.a(gconv_open.o)
 *fill*         0x080a85bb        0x5 00
 .rodata        0x080a85c0       0x70 C:\Projects\AADS\xCore/3rdparty/linux/lib/libc.a(gconv.o)
 .rodata        0x080a8630        0x2 C:\Projects\AADS\xCore/3rdparty/linux/lib/libc.a(gconv_db.o)
 *fill*         0x080a8632        0xe 00
 .rodata        0x080a8640      0x5fb C:\Projects\AADS\xCore/3rdparty/linux/lib/libc.a(gconv_conf.o)
 *fill*         0x080a8c3b        0x5 00
 .rodata        0x080a8c40      0x125 C:\Projects\AADS\xCore/3rdparty/linux/lib/libc.a(gconv_builtin.o)
 *fill*         0x080a8d65       0x1b 00
 .rodata        0x080a8d80      0x467 C:\Projects\AADS\xCore/3rdparty/linux/lib/libc.a(gconv_simple.o)
 .rodata        0x080a91e7       0x84 C:\Projects\AADS\xCore/3rdparty/linux/lib/libc.a(gconv_trans.o)
 .rodata        0x080a926b       0x78 C:\Projects\AADS\xCore/3rdparty/linux/lib/libc.a(gconv_dl.o)
 *fill*         0x080a92e3       0x1d 00
 .rodata        0x080a9300      0x1e0 C:\Projects\AADS\xCore/3rdparty/linux/lib/libc.a(setlocale.o)
                0x080a9300                _nl_current
                0x080a9334                _nl_C
                0x080a9460                _nl_category_name_sizes
                0x080a9380                _nl_category_names
 .rodata        0x080a94e0       0x15 C:\Projects\AADS\xCore/3rdparty/linux/lib/libc.a(findlocale.o)
 *fill*         0x080a94f5        0xb 00
 .rodata        0x080a9500      0x523 C:\Projects\AADS\xCore/3rdparty/linux/lib/libc.a(loadlocale.o)
 *fill*         0x080a9a23       0x1d 00
 .rodata        0x080a9a40     0x66aa C:\Projects\AADS\xCore/3rdparty/linux/lib/libc.a(C-ctype.o)
                0x080afea0                _nl_C_LC_CTYPE
                0x080afa80                _nl_C_LC_CTYPE_class_print
                0x080af840                _nl_C_LC_CTYPE_class_upper
                0x080afe40                _nl_C_LC_CTYPE_width
                0x080af9c0                _nl_C_LC_CTYPE_class_xdigit
                0x080afba0                _nl_C_LC_CTYPE_class_cntrl
                0x080ae540                _nl_C_LC_CTYPE_class
                0x080afae0                _nl_C_LC_CTYPE_class_graph
                0x080af240                _nl_C_LC_CTYPE_tolower
                0x080afcc0                _nl_C_LC_CTYPE_map_toupper
                0x080afc00                _nl_C_LC_CTYPE_class_punct
                0x080af960                _nl_C_LC_CTYPE_class_digit
                0x080ae840                _nl_C_LC_CTYPE_class32
                0x080afd80                _nl_C_LC_CTYPE_map_tolower
                0x080afa20                _nl_C_LC_CTYPE_class_space
                0x080aec40                _nl_C_LC_CTYPE_toupper
                0x080afc60                _nl_C_LC_CTYPE_class_alnum
                0x080afb40                _nl_C_LC_CTYPE_class_blank
                0x080af8a0                _nl_C_LC_CTYPE_class_lower
                0x080af900                _nl_C_LC_CTYPE_class_alpha
 *fill*         0x080b00ea       0x16 00
 .rodata        0x080b0100       0x3d C:\Projects\AADS\xCore/3rdparty/linux/lib/libc.a(C-messages.o)
                0x080b0100                _nl_C_LC_MESSAGES
 *fill*         0x080b013d        0x3 00
 .rodata        0x080b0140       0xf5 C:\Projects\AADS\xCore/3rdparty/linux/lib/libc.a(C-monetary.o)
                0x080b0160                _nl_C_LC_MONETARY
 *fill*         0x080b0235        0xb 00
 .rodata        0x080b0240       0x37 C:\Projects\AADS\xCore/3rdparty/linux/lib/libc.a(C-numeric.o)
                0x080b0240                _nl_C_LC_NUMERIC
 *fill*         0x080b0277        0x9 00
 .rodata        0x080b0280      0x8b9 C:\Projects\AADS\xCore/3rdparty/linux/lib/libc.a(C-time.o)
                0x080b0280                _nl_C_LC_TIME
 *fill*         0x080b0b39        0x7 00
 .rodata        0x080b0b40       0x28 C:\Projects\AADS\xCore/3rdparty/linux/lib/libc.a(C-paper.o)
                0x080b0b40                _nl_C_LC_PAPER
 *fill*         0x080b0b68       0x18 00
 .rodata        0x080b0b80       0x48 C:\Projects\AADS\xCore/3rdparty/linux/lib/libc.a(C-name.o)
                0x080b0b80                _nl_C_LC_NAME
 *fill*         0x080b0bc8       0x18 00
 .rodata        0x080b0be0       0x8c C:\Projects\AADS\xCore/3rdparty/linux/lib/libc.a(C-address.o)
                0x080b0be0                _nl_C_LC_ADDRESS
 *fill*         0x080b0c6c       0x14 00
 .rodata        0x080b0c80       0x3b C:\Projects\AADS\xCore/3rdparty/linux/lib/libc.a(C-telephone.o)
                0x080b0c80                _nl_C_LC_TELEPHONE
 *fill*         0x080b0cbb        0x5 00
 .rodata        0x080b0cc0       0x26 C:\Projects\AADS\xCore/3rdparty/linux/lib/libc.a(C-measurement.o)
                0x080b0cc0                _nl_C_LC_MEASUREMENT
 *fill*         0x080b0ce6       0x1a 00
 .rodata        0x080b0d00      0x1ea C:\Projects\AADS\xCore/3rdparty/linux/lib/libc.a(C-identification.o)
                0x080b0d00                _nl_C_LC_IDENTIFICATION
 *fill*         0x080b0eea       0x16 00
 .rodata        0x080b0f00      0x588 C:\Projects\AADS\xCore/3rdparty/linux/lib/libc.a(C-collate.o)
                0x080b1420                _nl_C_LC_COLLATE
 .rodata        0x080b1488        0x5 C:\Projects\AADS\xCore/3rdparty/linux/lib/libc.a(SYS_libc.o)
                0x080b1488                _libc_intl_domainname
 .rodata        0x080b148d        0x8 C:\Projects\AADS\xCore/3rdparty/linux/lib/libc.a(C_name.o)
                0x080b148d                _nl_C_name
                0x080b148f                _nl_POSIX_name
 .rodata        0x080b1495        0x2 C:\Projects\AADS\xCore/3rdparty/linux/lib/libc.a(setenv.o)
 *fill*         0x080b1497        0x9 00
 .rodata        0x080b14a0       0x24 C:\Projects\AADS\xCore/3rdparty/linux/lib/libc.a(itoa-digits.o)
                0x080b14a0                _itoa_lower_digits
 *fill*         0x080b14c4       0x1c 00
 .rodata        0x080b14e0      0x814 C:\Projects\AADS\xCore/3rdparty/linux/lib/libc.a(vfprintf.o)
 .rodata        0x080b1cf4       0x50 C:\Projects\AADS\xCore/3rdparty/linux/lib/libc.a(printf_fp.o)
 *fill*         0x080b1d44       0x1c 00
 .rodata        0x080b1d60       0xdc C:\Projects\AADS\xCore/3rdparty/linux/lib/libc.a(printf_fphex.o)
 .rodata        0x080b1e3c       0x20 C:\Projects\AADS\xCore/3rdparty/linux/lib/libc.a(iopadn.o)
 *fill*         0x080b1e5c        0x4 00
 .rodata        0x080b1e60       0x80 C:\Projects\AADS\xCore/3rdparty/linux/lib/libc.a(iowpadn.o)
 .rodata        0x080b1ee0       0x14 C:\Projects\AADS\xCore/3rdparty/linux/lib/libc.a(_strerror.o)
 *fill*         0x080b1ef4        0xc 00
 .rodata        0x080b1f00       0xda C:\Projects\AADS\xCore/3rdparty/linux/lib/libc.a(mbrtowc.o)
 *fill*         0x080b1fda        0x6 00
 .rodata        0x080b1fe0       0xc0 C:\Projects\AADS\xCore/3rdparty/linux/lib/libc.a(wcrtomb.o)
 .rodata        0x080b20a0      0x140 C:\Projects\AADS\xCore/3rdparty/linux/lib/libc.a(wcsrtombs.o)
 .rodata        0x080b21e0       0xe0 C:\Projects\AADS\xCore/3rdparty/linux/lib/libc.a(mbsnrtowcs.o)
 .rodata        0x080b22c0       0x4b C:\Projects\AADS\xCore/3rdparty/linux/lib/libc.a(tzset.o)
 .rodata        0x080b230b       0x71 C:\Projects\AADS\xCore/3rdparty/linux/lib/libc.a(tzfile.o)
 .rodata        0x080b237c        0xa C:\Projects\AADS\xCore/3rdparty/linux/lib/libc.a(opendir.o)
 *fill*         0x080b2386       0x1a 00
 .rodata        0x080b23a0       0x58 C:\Projects\AADS\xCore/3rdparty/linux/lib/libc.a(getdents.o)
 .rodata        0x080b23f8       0x20 C:\Projects\AADS\xCore/3rdparty/linux/lib/libc.a(getopt_init.o)
 .rodata        0x080b2418       0x1f C:\Projects\AADS\xCore/3rdparty/linux/lib/libc.a(mntent_r.o)
 .rodata        0x080b2437        0x1 C:\Projects\AADS\xCore/3rdparty/linux/lib/libc.a(init-misc.o)
 *fill*         0x080b2438        0x8 00
 .rodata        0x080b2440      0xeb0 C:\Projects\AADS\xCore/3rdparty/linux/lib/libc.a(fpioconst.o)
                0x080b3220                _fpioconst_pow10
                0x080b2440                __tens
 .rodata        0x080b32f0      0x1a4 C:\Projects\AADS\xCore/3rdparty/linux/lib/libc.a(_itoa.o)
                0x080b32f0                _itoa_base_table
 *fill*         0x080b3494        0xc 00
 .rodata        0x080b34a0       0x24 C:\Projects\AADS\xCore/3rdparty/linux/lib/libc.a(itoa-udigits.o)
                0x080b34a0                _itoa_upper_digits
 *fill*         0x080b34c4       0x1c 00
 .rodata        0x080b34e0      0x130 C:\Projects\AADS\xCore/3rdparty/linux/lib/libc.a(itowa-digits.o)
                0x080b34e0                _itowa_lower_digits
                0x080b3580                _itowa_upper_digits
 *fill*         0x080b3610       0x10 00
 .rodata        0x080b3620      0x250 C:\Projects\AADS\xCore/3rdparty/linux/lib/libc.a(vfscanf.o)
 *fill*         0x080b3870       0x10 00
 .rodata        0x080b3880      0xee4 C:\Projects\AADS\xCore/3rdparty/linux/lib/libc.a(errlist.o)
                0x080b3880                __new_sys_errlist
                0x080b3880                _new_sys_errlist
                0x080b4760                sys_nerr
                0x080b4760                _sys_nerr
                0x080b3880                _sys_errlist
                0x080b3880                sys_errlist
                0x080b4760                _new_sys_nerr
                0x080b4760                __new_sys_nerr
 *fill*         0x080b4764       0x1c 00
 .rodata        0x080b4780       0x58 C:\Projects\AADS\xCore/3rdparty/linux/lib/libc.a(mktime.o)
                0x080b4780                __mon_yday
 *fill*         0x080b47d8        0x8 00
 .rodata        0x080b47e0       0xeb C:\Projects\AADS\xCore/3rdparty/linux/lib/libc.a(dl-profile.o)
 *fill*         0x080b48cb       0x15 00
 .rodata        0x080b48e0      0x116 C:\Projects\AADS\xCore/3rdparty/linux/lib/libc.a(dl-open.o)
 *fill*         0x080b49f6        0xa 00
 .rodata        0x080b4a00       0xf8 C:\Projects\AADS\xCore/3rdparty/linux/lib/libc.a(dl-close.o)
 .rodata        0x080b4af8       0x10 C:\Projects\AADS\xCore/3rdparty/linux/lib/libc.a(strtoll.o)
 *fill*         0x080b4b08       0x18 00
 .rodata        0x080b4b20       0x8c C:\Projects\AADS\xCore/3rdparty/linux/lib/libc.a(strtof.o)
 *fill*         0x080b4bac       0x14 00
 .rodata        0x080b4bc0       0x98 C:\Projects\AADS\xCore/3rdparty/linux/lib/libc.a(strtod.o)
 *fill*         0x080b4c58        0x8 00
 .rodata        0x080b4c60      0x12c C:\Projects\AADS\xCore/3rdparty/linux/lib/libc.a(strtold.o)
 *fill*         0x080b4d8c       0x14 00
 .rodata        0x080b4da0      0x260 C:\Projects\AADS\xCore/3rdparty/linux/lib/libc.a(dl-reloc.o)
 .rodata        0x080b5000      0x220 C:\Projects\AADS\xCore/3rdparty/linux/lib/libc.a(dl-deps.o)
 .rodata        0x080b5220       0xe5 C:\Projects\AADS\xCore/3rdparty/linux/lib/libc.a(dl-runtime.o)
 .rodata        0x080b5305       0x26 C:\Projects\AADS\xCore/3rdparty/linux/lib/libc.a(dl-init.o)
 *fill*         0x080b532b       0x15 00
 .rodata        0x080b5340      0x16c C:\Projects\AADS\xCore/3rdparty/linux/lib/libc.a(dl-version.o)
 .rodata        0x080b54ac        0x4 C:\Projects\AADS\xCore/3rdparty/linux/lib/libpthread.a(cancel.o)
 .rodata        0x080b54b0       0x20 C:\Projects\AADS\xCore/3rdparty/linux/lib/libpthread.a(manager.o)
                0x080b54b0                __linuxthreads_pthread_threads_max
 .rodata        0x080b54d0       0x48 C:\Projects\AADS\xCore/3rdparty/linux/lib/libpthread.a(pthread.o)
                0x080b54d8                __pthread_offsetof_descr
                0x080b54e0                __linuxthread_pthread_sizeof_descr
                0x080b54d0                __pthread_threads_max
                0x080b54dc                __pthread_offsetof_pid
                0x080b54d4                __pthread_sizeof_handle
 .rodata        0x080b5518        0x8 C:\Projects\AADS\xCore/3rdparty/linux/lib/libpthread.a(specific.o)
                0x080b5518                __linuxthreads_pthread_keys_max
                0x080b551c                __linuxthreads_pthread_key_2ndlevel_size
 .rodata        0x080b5520        0x4 C:\Projects\AADS\xCore/3rdparty/linux/lib/libpthread.a(wrapsyscall.o)
                0x080b5520                __pthread_provide_wrappers
 *fill*         0x080b5524       0x1c 00
 .rodata        0x080b5540      0xc33 .\Linux-debug\main.obj
 *fill*         0x080b6173        0xd 00
 .rodata        0x080b6180      0x126 \Projects\AADS\Support\netlib\Linux-Debug\NetLib.lib(NetCommon.obj)
 *fill*         0x080b62a6       0x1a 00
 .rodata        0x080b62c0      0x7ea \Projects\AADS\Support\netlib\Linux-Debug\NetLib.lib(netlib.obj)
 .rodata        0x080b6aaa      0x100 C:\Projects\AADS\xCore/3rdparty/linux/lib/libgcc.a(_udivdi3.o)
 .rodata        0x080b6baa      0x100 C:\Projects\AADS\xCore/3rdparty/linux/lib/libgcc.a(_umoddi3.o)
 .rodata        0x080b6caa       0x15 C:\Projects\AADS\xCore/3rdparty/linux/lib/libc.a(system.o)
 *fill*         0x080b6cbf        0x1 00
 .rodata        0x080b6cc0      0x130 C:\Projects\AADS\xCore/3rdparty/linux/lib/libc.a(strverscmp.o)
 .rodata        0x080b6df0       0x10 C:\Projects\AADS\xCore/3rdparty/linux/lib/libc.a(gethstbyad_r.o)
 .rodata        0x080b6e00       0x10 C:\Projects\AADS\xCore/3rdparty/linux/lib/libc.a(gethstbynm_r.o)
 .rodata        0x080b6e10       0x20 C:\Projects\AADS\xCore/3rdparty/linux/lib/libc.a(in6_addr.o)
                0x080b6e10                in6addr_any
                0x080b6e20                in6addr_loopback
 .rodata        0x080b6e30       0x16 C:\Projects\AADS\xCore/3rdparty/linux/lib/libc.a(nscd_gethst_r.o)
 .rodata        0x080b6e46       0xa1 C:\Projects\AADS\xCore/3rdparty/linux/lib/libc.a(res_init.o)
 *fill*         0x080b6ee7       0x19 00
 .rodata        0x080b6f00      0x2e5 C:\Projects\AADS\xCore/3rdparty/linux/lib/libc.a(res_hconf.o)
 *fill*         0x080b71e5        0x3 00
 .rodata        0x080b71e8      0x108 C:\Projects\AADS\xCore/3rdparty/linux/lib/libc.a(nsswitch.o)
 .rodata        0x080b72f0       0x32 C:\Projects\AADS\xCore/3rdparty/linux/lib/libc.a(digits_dots.o)
 .rodata        0x080b7322       0x22 C:\Projects\AADS\xCore/3rdparty/linux/lib/libc.a(hosts-lookup.o)
 .rodata        0x080b7344       0x19 C:\Projects\AADS\xCore/3rdparty/linux/lib/libc.a(nscd_getgr_r.o)
 *fill*         0x080b735d        0x3 00
 .rodata        0x080b7360       0x10 C:\Projects\AADS\xCore/3rdparty/linux/lib/libc.a(inet_addr.o)
 .rodata        0x080b7370       0x11 C:\Projects\AADS\xCore/3rdparty/linux/lib/libc.a(inet_pton.o)
 *(.rodata.*)
 *(.gnu.linkonce.r.*)
                0x080b7384                __start___libc_subinit = ALIGN (0x4)

__libc_subinit  0x080b7384        0xc
 __libc_subinit
                0x080b7384        0x4 C:\Projects\AADS\xCore/3rdparty/linux/lib/libc.a(assert.o)
 __libc_subinit
                0x080b7388        0x4 C:\Projects\AADS\xCore/3rdparty/linux/lib/libc.a(dl-support.o)
 __libc_subinit
                0x080b738c        0x4 C:\Projects\AADS\xCore/3rdparty/linux/lib/libc.a(init-misc.o)
                0x080b7390                __stop___libc_subinit = .
                0x080b7390                __start___libc_subfreeres = ALIGN (0x4)

__libc_subfreeres
                0x080b7390       0x4c
 __libc_subfreeres
                0x080b7390        0x4 C:\Projects\AADS\xCore/3rdparty/linux/lib/libc.a(dcigettext.o)
 __libc_subfreeres
                0x080b7394        0x4 C:\Projects\AADS\xCore/3rdparty/linux/lib/libc.a(finddomain.o)
 __libc_subfreeres
                0x080b7398        0x4 C:\Projects\AADS\xCore/3rdparty/linux/lib/libc.a(localealias.o)
 __libc_subfreeres
                0x080b739c        0x4 C:\Projects\AADS\xCore/3rdparty/linux/lib/libc.a(getsysstats.o)
 __libc_subfreeres
                0x080b73a0        0x4 C:\Projects\AADS\xCore/3rdparty/linux/lib/libc.a(gconv_db.o)
 __libc_subfreeres
                0x080b73a4        0x4 C:\Projects\AADS\xCore/3rdparty/linux/lib/libc.a(gconv_conf.o)
 __libc_subfreeres
                0x080b73a8        0x4 C:\Projects\AADS\xCore/3rdparty/linux/lib/libc.a(gconv_dl.o)
 __libc_subfreeres
                0x080b73ac        0x4 C:\Projects\AADS\xCore/3rdparty/linux/lib/libc.a(setlocale.o)
 __libc_subfreeres
                0x080b73b0        0x4 C:\Projects\AADS\xCore/3rdparty/linux/lib/libc.a(findlocale.o)
 __libc_subfreeres
                0x080b73b4        0x4 C:\Projects\AADS\xCore/3rdparty/linux/lib/libc.a(lc-time.o)
 __libc_subfreeres
                0x080b73b8        0x4 C:\Projects\AADS\xCore/3rdparty/linux/lib/libc.a(setenv.o)
 __libc_subfreeres
                0x080b73bc        0x4 C:\Projects\AADS\xCore/3rdparty/linux/lib/libc.a(tzset.o)
 __libc_subfreeres
                0x080b73c0        0x4 C:\Projects\AADS\xCore/3rdparty/linux/lib/libc.a(tzfile.o)
 __libc_subfreeres
                0x080b73c4        0x4 C:\Projects\AADS\xCore/3rdparty/linux/lib/libc.a(dl-libc.o)
 __libc_subfreeres
                0x080b73c8        0x4 C:\Projects\AADS\xCore/3rdparty/linux/lib/libc.a(dl-close.o)
 __libc_subfreeres
                0x080b73cc        0x4 C:\Projects\AADS\xCore/3rdparty/linux/lib/libc.a(gethstbyad.o)
 __libc_subfreeres
                0x080b73d0        0x4 C:\Projects\AADS\xCore/3rdparty/linux/lib/libc.a(gethstbynm.o)
 __libc_subfreeres
                0x080b73d4        0x4 C:\Projects\AADS\xCore/3rdparty/linux/lib/libc.a(res_hconf.o)
 __libc_subfreeres
                0x080b73d8        0x4 C:\Projects\AADS\xCore/3rdparty/linux/lib/libc.a(nsswitch.o)
                0x080b73dc                __stop___libc_subfreeres = .
                0x080b73dc                __start___libc_atexit = ALIGN (0x4)

__libc_atexit   0x080b73dc        0x4
 __libc_atexit  0x080b73dc        0x4 C:\Projects\AADS\xCore/3rdparty/linux/lib/libc.a(genops.o)
                0x080b73e0                __stop___libc_atexit = .

.rodata1
 *(.rodata1)

.sdata2
 *(.sdata2)
 *(.sdata2.*)
 *(.gnu.linkonce.s2.*)

.sbss2
 *(.sbss2)
 *(.sbss2.*)
 *(.gnu.linkonce.sb2.*)
                0x080b83e0                . = (ALIGN (0x1000) + (. & 0xfff))

.data           0x080b83e0     0x8cd8
 *(.data)
 .data          0x080b83e0     0x1024 \Projects\AADS\xCore\x_files\Linux-Debug\x_files.lib(x_memory.obj)
                0x080b9400                XMEMORY_WATCH_SIZE
 *fill*         0x080b9404       0x1c 00
 .data          0x080b9420       0xa8 \Projects\AADS\xCore\x_files\Linux-Debug\x_files.lib(x_debug.obj)
 .data          0x080b94c8        0xc \Projects\AADS\xCore\x_files\Linux-Debug\x_files.lib(x_threads.obj)
                0x080b94d0                s_crit_initialized
 .data          0x080b94d4       0x34 \Projects\AADS\xCore\x_files\Linux-Debug\x_files.lib(x_stdio.obj)
                0x080b9500                x_fopen_log
                0x080b9504                x_logging_enabled
 .data          0x080b9508       0x10 \Projects\AADS\xCore\x_files\Linux-Debug\x_files.lib(x_mutex.obj)
                0x080b9508                s_AcquiresDone
                0x080b9514                s_ExitsDone
                0x080b9510                s_EntersDone
                0x080b950c                s_ReleasesDone
 .data          0x080b9518        0x4 \Projects\AADS\xCore\x_files\Linux-Debug\x_files.lib(x_files.obj)
 .data          0x080b951c        0x8 C:\Projects\AADS\xCore/3rdparty/linux/lib/crtbegin.o
 .data          0x080b9524        0x4 C:\Projects\AADS\xCore/3rdparty/linux/lib/crt1.o
                0x080b9524                data_start
                0x080b9524                __data_start
 .data          0x080b9528        0x8 C:\Projects\AADS\xCore/3rdparty/linux/lib/libm.a(k_standard.o)
 .data          0x080b9530        0x4 C:\Projects\AADS\xCore/3rdparty/linux/lib/libm.a(s_lib_version.o)
                0x080b9530                _LIB_VERSION
 *fill*         0x080b9534        0xc 00
 .data          0x080b9540       0x40 C:\Projects\AADS\xCore/3rdparty/linux/lib/libc.a(dcigettext.o)
                0x080b9540                _nl_current_default_domain
                0x080b9560                _nl_state_lock
 .data          0x080b9580       0x10 C:\Projects\AADS\xCore/3rdparty/linux/lib/libc.a(loadmsgcat.o)
 .data          0x080b9590        0x4 C:\Projects\AADS\xCore/3rdparty/linux/lib/libc.a(localealias.o)
 .data          0x080b9594       0x18 C:\Projects\AADS\xCore/3rdparty/linux/lib/libc.a(abort.o)
 .data          0x080b95ac        0x4 C:\Projects\AADS\xCore/3rdparty/linux/lib/libc.a(atexit.o)
                0x080b95ac                __exit_funcs
 *fill*         0x080b95b0       0x10 00
 .data          0x080b95c0       0x54 C:\Projects\AADS\xCore/3rdparty/linux/lib/libc.a(wfileops.o)
                0x080b95c0                _IO_wfile_jumps
 *fill*         0x080b9614        0xc 00
 .data          0x080b9620       0x54 C:\Projects\AADS\xCore/3rdparty/linux/lib/libc.a(fileops.o)
                0x080b9620                _IO_file_jumps
 .data          0x080b9674       0x18 C:\Projects\AADS\xCore/3rdparty/linux/lib/libc.a(genops.o)
 *fill*         0x080b968c       0x14 00
 .data          0x080b96a0      0x47c C:\Projects\AADS\xCore/3rdparty/linux/lib/libc.a(stdfiles.o)
                0x080b9900                _IO_2_1_stdout_
                0x080b9780                _IO_2_1_stdin_
                0x080b9b18                _IO_list_all
                0x080b9a80                _IO_2_1_stderr_
 .data          0x080b9b1c        0xc C:\Projects\AADS\xCore/3rdparty/linux/lib/libc.a(stdio.o)
                0x080b9b20                stdout
                0x080b9b1c                stdin
                0x080b9b20                _IO_stdout
                0x080b9b24                stderr
                0x080b9b24                _IO_stderr
                0x080b9b1c                _IO_stdin
 *fill*         0x080b9b28       0x18 00
 .data          0x080b9b40       0x54 C:\Projects\AADS\xCore/3rdparty/linux/lib/libc.a(strops.o)
                0x080b9b40                _IO_str_jumps
 *fill*         0x080b9b94        0xc 00
 .data          0x080b9ba0      0x494 C:\Projects\AADS\xCore/3rdparty/linux/lib/libc.a(malloc.o)
                0x080b9ba0                __morecore
                0x080ba024                __malloc_hook
                0x080ba01c                __malloc_initialize_hook
                0x080ba028                __realloc_hook
                0x080ba030                __after_morecore_hook
                0x080ba018                __libc_malloc_initialized
                0x080ba020                __free_hook
                0x080ba02c                __memalign_hook
 *fill*         0x080ba034        0xc 00
 .data          0x080ba040       0xa0 C:\Projects\AADS\xCore/3rdparty/linux/lib/libc.a(wcsmbsload.o)
                0x080ba040                __wcsmbs_last_locale
                0x080ba0d8                __wcsmbs_gconv_fcts
 .data          0x080ba0e0        0x4 C:\Projects\AADS\xCore/3rdparty/linux/lib/libc.a(environ.o)
                0x080ba0e0                _environ
                0x080ba0e0                __environ
                0x080ba0e0                environ
 .data          0x080ba0e4        0x4 C:\Projects\AADS\xCore/3rdparty/linux/lib/libc.a(dl-cache.o)
                0x080ba0e4                _dl_correct_cache_id
 .data          0x080ba0e8        0x4 C:\Projects\AADS\xCore/3rdparty/linux/lib/libc.a(dl-misc.o)
                0x080ba0e8                _dl_debug_fd
 .data          0x080ba0ec       0x60 C:\Projects\AADS\xCore/3rdparty/linux/lib/libc.a(dl-support.o)
                0x080ba0f4                _dl_global_scope
                0x080ba0ec                _dl_argv
                0x080ba0fc                _dl_main_searchlist
                0x080ba0f0                _dl_dynamic_weak
                0x080ba100                _dl_starting_up
                0x080ba104                _dl_load_lock
 .data          0x080ba14c        0x4 C:\Projects\AADS\xCore/3rdparty/linux/lib/libc.a(enbl-secure.o)
                0x080ba14c                __libc_enable_secure
 .data          0x080ba150        0x4 C:\Projects\AADS\xCore/3rdparty/linux/lib/libc.a(init-first.o)
                0x080ba150                __libc_multiple_libcs
 .data          0x080ba154        0x4 C:\Projects\AADS\xCore/3rdparty/linux/lib/libc.a(gconv_open.o)
 .data          0x080ba158      0x22c C:\Projects\AADS\xCore/3rdparty/linux/lib/libc.a(gconv_conf.o)
 .data          0x080ba384      0x1a0 C:\Projects\AADS\xCore/3rdparty/linux/lib/libc.a(gconv_builtin.o)
 .data          0x080ba524       0x34 C:\Projects\AADS\xCore/3rdparty/linux/lib/libc.a(setlocale.o)
 .data          0x080ba558       0x34 C:\Projects\AADS\xCore/3rdparty/linux/lib/libc.a(loadlocale.o)
 .data          0x080ba58c        0x4 C:\Projects\AADS\xCore/3rdparty/linux/lib/libc.a(lc-ctype.o)
                0x080ba58c                _nl_current_LC_CTYPE
 .data          0x080ba590        0x4 C:\Projects\AADS\xCore/3rdparty/linux/lib/libc.a(lc-messages.o)
                0x080ba590                _nl_current_LC_MESSAGES
 .data          0x080ba594        0x4 C:\Projects\AADS\xCore/3rdparty/linux/lib/libc.a(lc-monetary.o)
                0x080ba594                _nl_current_LC_MONETARY
 .data          0x080ba598        0x4 C:\Projects\AADS\xCore/3rdparty/linux/lib/libc.a(lc-numeric.o)
                0x080ba598                _nl_current_LC_NUMERIC
 .data          0x080ba59c        0x4 C:\Projects\AADS\xCore/3rdparty/linux/lib/libc.a(lc-time.o)
                0x080ba59c                _nl_current_LC_TIME
 .data          0x080ba5a0        0x4 C:\Projects\AADS\xCore/3rdparty/linux/lib/libc.a(lc-paper.o)
                0x080ba5a0                _nl_current_LC_PAPER
 .data          0x080ba5a4        0x4 C:\Projects\AADS\xCore/3rdparty/linux/lib/libc.a(lc-name.o)
                0x080ba5a4                _nl_current_LC_NAME
 .data          0x080ba5a8        0x4 C:\Projects\AADS\xCore/3rdparty/linux/lib/libc.a(lc-address.o)
                0x080ba5a8                _nl_current_LC_ADDRESS
 .data          0x080ba5ac        0x4 C:\Projects\AADS\xCore/3rdparty/linux/lib/libc.a(lc-telephone.o)
                0x080ba5ac                _nl_current_LC_TELEPHONE
 .data          0x080ba5b0        0x4 C:\Projects\AADS\xCore/3rdparty/linux/lib/libc.a(lc-measurement.o)
                0x080ba5b0                _nl_current_LC_MEASUREMENT
 .data          0x080ba5b4        0x4 C:\Projects\AADS\xCore/3rdparty/linux/lib/libc.a(lc-identification.o)
                0x080ba5b4                _nl_current_LC_IDENTIFICATION
 .data          0x080ba5b8        0x4 C:\Projects\AADS\xCore/3rdparty/linux/lib/libc.a(lc-collate.o)
                0x080ba5b8                _nl_current_LC_COLLATE
 *fill*         0x080ba5bc        0x4 00
 .data          0x080ba5c0       0x5c C:\Projects\AADS\xCore/3rdparty/linux/lib/libc.a(ctype-info.o)
                0x080ba618                __ctype32_width
                0x080ba5c4                __ctype32_b
                0x080ba5c0                __ctype_b
                0x080ba5e0                __ctype32_wctype
                0x080ba5cc                __ctype_toupper
                0x080ba5d4                __ctype32_toupper
                0x080ba5d0                __ctype32_tolower
                0x080ba610                __ctype32_wctrans
                0x080ba5c8                __ctype_tolower
 .data          0x080ba61c        0x2 C:\Projects\AADS\xCore/3rdparty/linux/lib/libc.a(fpu_control.o)
                0x080ba61c                __fpu_control
 *fill*         0x080ba61e        0x2 00
 .data          0x080ba620       0x8c C:\Projects\AADS\xCore/3rdparty/linux/lib/libc.a(iofwide.o)
                0x080ba620                __libio_codecvt
 .data          0x080ba6ac       0x10 C:\Projects\AADS\xCore/3rdparty/linux/lib/libc.a(tzset.o)
                0x080ba6b4                __daylight
                0x080ba6b4                daylight
                0x080ba6ac                __tzname
                0x080ba6ac                tzname
                0x080ba6b8                timezone
                0x080ba6b8                __timezone
 .data          0x080ba6bc        0x4 C:\Projects\AADS\xCore/3rdparty/linux/lib/libc.a(getuid.o)
                0x080ba6bc                __libc_missing_32bit_uids
 .data          0x080ba6c0        0x4 C:\Projects\AADS\xCore/3rdparty/linux/lib/libc.a(brk.o)
                0x080ba6c0                ___brk_addr
                0x080ba6c0                __curbrk
 .data          0x080ba6c4        0x8 C:\Projects\AADS\xCore/3rdparty/linux/lib/libc.a(init-misc.o)
                0x080ba6c8                __progname
                0x080ba6c8                program_invocation_short_name
                0x080ba6c4                program_invocation_name
                0x080ba6c4                __progname_full
 .data          0x080ba6cc        0x4 C:\Projects\AADS\xCore/3rdparty/linux/lib/libc.a(dl-profile.o)
 *fill*         0x080ba6d0       0x10 00
 .data          0x080ba6e0       0x3a C:\Projects\AADS\xCore/3rdparty/linux/lib/libc.a(dl-reloc.o)
 *fill*         0x080ba71a        0x2 00
 *fill*         0x080ba71c        0x4 00
 .data          0x080ba720     0x4004 C:\Projects\AADS\xCore/3rdparty/linux/lib/libpthread.a(manager.o)
                0x080ba720                __pthread_handles
                0x080be720                __pthread_handles_num
 *fill*         0x080be724       0x1c 00
 .data          0x080be740      0x820 C:\Projects\AADS\xCore/3rdparty/linux/lib/libpthread.a(pthread.o)
                0x080bef4c                __pthread_suspend
                0x080bef5c                __pthread_sig_debug
                0x080beb40                __pthread_manager_thread
                0x080bef44                __pthread_manager_request
                0x080bef48                __pthread_restart
                0x080be740                __pthread_initial_thread
                0x080bef50                __pthread_timedsuspend
                0x080bef58                __pthread_sig_cancel
                0x080bef54                __pthread_sig_restart
                0x080bef40                __pthread_main_thread
 .data          0x080bef60     0x2020 C:\Projects\AADS\xCore/3rdparty/linux/lib/libpthread.a(specific.o)
                0x080c0f78                __libc_internal_tsd_set
                0x080c0f7c                __libc_internal_tsd_get
 .data          0x080c0f80        0x4 C:\Projects\AADS\xCore/3rdparty/linux/lib/libpthread.a(spinlock.o)
                0x080c0f80                __pthread_has_cas
 .data          0x080c0f84        0x4 \Projects\AADS\Support\netlib\Linux-Debug\NetLib.lib(NetCommon.obj)
 .data          0x080c0f88        0x4 \Projects\AADS\Support\netlib\Linux-Debug\NetLib.lib(netlib.obj)
 .data          0x080c0f8c        0x4 C:\Projects\AADS\xCore/3rdparty/linux/lib/libc.a(herrno.o)
                0x080c0f8c                _h_errno
                0x080c0f8c                h_errno
 .data          0x080c0f90       0x70 C:\Projects\AADS\xCore/3rdparty/linux/lib/libc.a(res_hconf.o)
 .data          0x080c1000       0x60 C:\Projects\AADS\xCore/3rdparty/linux/lib/libc.a(nsswitch.o)
 .data          0x080c1060       0x54 C:\Projects\AADS\xCore/3rdparty/linux/lib/libc.a(vsnprintf.o)
 .data          0x080c10b4        0x4 C:\Projects\AADS\xCore/3rdparty/linux/lib/libc.a(opensock.o)
 *(.data.*)
 *(.gnu.linkonce.d.*)

.data1
 *(.data1)

.eh_frame       0x080c10b8      0xf50
 *(.eh_frame)
 .eh_frame      0x080c10b8        0x4 C:\Projects\AADS\xCore/3rdparty/linux/lib/crtend.o
 .eh_frame      0x080c10bc       0x38 C:\Projects\AADS\xCore/3rdparty/linux/lib/libc.a(bsearch.o)
 .eh_frame      0x080c10f4       0x60 C:\Projects\AADS\xCore/3rdparty/linux/lib/libc.a(msort.o)
                                 0x74 (size before relaxing)
 .eh_frame      0x080c1154      0x138 C:\Projects\AADS\xCore/3rdparty/linux/lib/libc.a(wfileops.o)
                                0x14c (size before relaxing)
 .eh_frame      0x080c128c      0x2cc C:\Projects\AADS\xCore/3rdparty/linux/lib/libc.a(fileops.o)
                                0x2e0 (size before relaxing)
 .eh_frame      0x080c1558      0x630 C:\Projects\AADS\xCore/3rdparty/linux/lib/libc.a(genops.o)
                                0x644 (size before relaxing)
 .eh_frame      0x080c1b88      0x124 C:\Projects\AADS\xCore/3rdparty/linux/lib/libc.a(tsearch.o)
                                0x138 (size before relaxing)
 .eh_frame      0x080c1cac       0x28 C:\Projects\AADS\xCore/3rdparty/linux/lib/libc.a(qsort.o)
                                 0x3c (size before relaxing)
 .eh_frame      0x080c1cd4      0x334 C:\Projects\AADS\xCore/3rdparty/linux/lib/libc.a(wgenops.o)
                                0x348 (size before relaxing)

.gcc_except_table
 *(.gcc_except_table)

.ctors          0x080c2008       0x18
 *crtbegin.o(.ctors)
 .ctors         0x080c2008        0x4 C:\Projects\AADS\xCore/3rdparty/linux/lib/crtbegin.o
 *(EXCLUDE_FILE(*crtend.o) .ctors)
 .ctors         0x080c200c        0x4 \Projects\AADS\xCore\x_files\Linux-Debug\x_files.lib(x_plus.obj)
 .ctors         0x080c2010        0x4 C:\Projects\AADS\xCore/3rdparty/linux/lib/libpthread.a(pthread.o)
 .ctors         0x080c2014        0x4 .\Linux-debug\main.obj
 .ctors         0x080c2018        0x4 \Projects\AADS\Support\netlib\Linux-Debug\NetLib.lib(NetCommon.obj)
 *(SORT(.ctors.*))
 *(.ctors)
 .ctors         0x080c201c        0x4 C:\Projects\AADS\xCore/3rdparty/linux/lib/crtend.o

.dtors          0x080c2020        0xc
 *crtbegin.o(.dtors)
 .dtors         0x080c2020        0x4 C:\Projects\AADS\xCore/3rdparty/linux/lib/crtbegin.o
 *(EXCLUDE_FILE(*crtend.o) .dtors)
 .dtors         0x080c2024        0x4 .\Linux-debug\main.obj
 *(SORT(.dtors.*))
 *(.dtors)
 .dtors         0x080c2028        0x4 C:\Projects\AADS\xCore/3rdparty/linux/lib/crtend.o

.got            0x080c202c       0x10
 *(.got.plt)
 .got.plt       0x080c202c        0xc .\Linux-debug\bytestream.obj
                0x080c202c                _GLOBAL_OFFSET_TABLE_
 *(.got)
 .got           0x080c2038        0x4 .\Linux-debug\bytestream.obj

.dynamic
 *(.dynamic)

.sdata
 *(.sdata)
 *(.sdata.*)
 *(.gnu.linkonce.s.*)
                0x080c203c                _edata = .
                0x080c203c                PROVIDE (edata, .)
                0x080c203c                __bss_start = .

.sbss           0x080c203c        0x0
                0x080c203c                PROVIDE (__sbss_start, .)
                0x080c203c                PROVIDE (___sbss_start, .)
 *(.dynsbss)
 *(.sbss)
 *(.sbss.*)
 *(.gnu.linkonce.sb.*)
 *(.scommon)
                0x080c203c                PROVIDE (__sbss_end, .)
                0x080c203c                PROVIDE (___sbss_end, .)

.bss            0x080c2040     0xb938
 *(.dynbss)
 *(.bss)
 .bss           0x080c2040      0x200 .\Linux-debug\bytestream.obj
                0x080c2040                StaticbytestreamBuffer
 .bss           0x080c2240        0x4 \Projects\AADS\xCore\x_files\Linux-Debug\x_files.lib(x_plus.obj)
 *fill*         0x080c2244       0x1c 00
 .bss           0x080c2260     0x7040 \Projects\AADS\xCore\x_files\Linux-Debug\x_files.lib(x_memory.obj)
 .bss           0x080c92a0        0x4 \Projects\AADS\xCore\x_files\Linux-Debug\x_files.lib(x_debug.obj)
                0x080c92a0                DDBZ
 .bss           0x080c92a4        0x8 \Projects\AADS\xCore\x_files\Linux-Debug\x_files.lib(x_time.obj)
 .bss           0x080c92ac       0x20 \Projects\AADS\xCore\x_files\Linux-Debug\x_files.lib(x_threads.obj)
                0x080c92b4                pMainThread
                0x080c92bc                s_Critical
                0x080c92b8                IntsDisabled
 .bss           0x080c92cc       0x18 C:\Projects\AADS\xCore/3rdparty/linux/lib/crtbegin.o
 .bss           0x080c92e4       0x28 C:\Projects\AADS\xCore/3rdparty/linux/lib/libc.a(dcigettext.o)
 .bss           0x080c930c        0x4 C:\Projects\AADS\xCore/3rdparty/linux/lib/libc.a(finddomain.o)
 .bss           0x080c9310       0x30 C:\Projects\AADS\xCore/3rdparty/linux/lib/libc.a(localealias.o)
 .bss           0x080c9340        0x4 C:\Projects\AADS\xCore/3rdparty/linux/lib/libc.a(abort.o)
 .bss           0x080c9344        0x8 C:\Projects\AADS\xCore/3rdparty/linux/lib/libc.a(msort.o)
 *fill*         0x080c934c       0x14 00
 .bss           0x080c9360      0x228 C:\Projects\AADS\xCore/3rdparty/linux/lib/libc.a(atexit.o)
 .bss           0x080c9588       0x34 C:\Projects\AADS\xCore/3rdparty/linux/lib/libc.a(malloc.o)
 .bss           0x080c95bc       0x18 C:\Projects\AADS\xCore/3rdparty/linux/lib/libc.a(wcsmbsload.o)
 .bss           0x080c95d4        0x8 C:\Projects\AADS\xCore/3rdparty/linux/lib/libc.a(getcwd.o)
 .bss           0x080c95dc        0x4 C:\Projects\AADS\xCore/3rdparty/linux/lib/libc.a(getsysstats.o)
 .bss           0x080c95e0       0x20 C:\Projects\AADS\xCore/3rdparty/linux/lib/libc.a(dl-load.o)
 .bss           0x080c9600        0xc C:\Projects\AADS\xCore/3rdparty/linux/lib/libc.a(dl-cache.o)
 .bss           0x080c960c        0x8 C:\Projects\AADS\xCore/3rdparty/linux/lib/libc.a(dl-error.o)
 .bss           0x080c9614        0x4 C:\Projects\AADS\xCore/3rdparty/linux/lib/libc.a(sysdep.o)
                0x080c9614                errno
                0x080c9614                _errno
 .bss           0x080c9618       0x20 C:\Projects\AADS\xCore/3rdparty/linux/lib/libc.a(gconv_db.o)
 .bss           0x080c9638       0x24 C:\Projects\AADS\xCore/3rdparty/linux/lib/libc.a(gconv_conf.o)
 .bss           0x080c965c       0x1c C:\Projects\AADS\xCore/3rdparty/linux/lib/libc.a(gconv_trans.o)
 .bss           0x080c9678        0x8 C:\Projects\AADS\xCore/3rdparty/linux/lib/libc.a(gconv_dl.o)
 .bss           0x080c9680       0x34 C:\Projects\AADS\xCore/3rdparty/linux/lib/libc.a(findlocale.o)
 .bss           0x080c96b4       0x1c C:\Projects\AADS\xCore/3rdparty/linux/lib/libc.a(lc-time.o)
 .bss           0x080c96d0       0x20 C:\Projects\AADS\xCore/3rdparty/linux/lib/libc.a(setenv.o)
 *fill*         0x080c96f0       0x10 00
 .bss           0x080c9700      0x400 C:\Projects\AADS\xCore/3rdparty/linux/lib/libc.a(reg-printf.o)
 .bss           0x080c9b00        0x8 C:\Projects\AADS\xCore/3rdparty/linux/lib/libc.a(mbrlen.o)
 .bss           0x080c9b08        0x8 C:\Projects\AADS\xCore/3rdparty/linux/lib/libc.a(mbrtowc.o)
 .bss           0x080c9b10        0x8 C:\Projects\AADS\xCore/3rdparty/linux/lib/libc.a(wcrtomb.o)
 .bss           0x080c9b18        0x8 C:\Projects\AADS\xCore/3rdparty/linux/lib/libc.a(wcsrtombs.o)
 .bss           0x080c9b20        0x8 C:\Projects\AADS\xCore/3rdparty/linux/lib/libc.a(mbsnrtowcs.o)
 *fill*         0x080c9b28       0x18 00
 .bss           0x080c9b40       0x64 C:\Projects\AADS\xCore/3rdparty/linux/lib/libc.a(tzset.o)
 .bss           0x080c9ba4       0x28 C:\Projects\AADS\xCore/3rdparty/linux/lib/libc.a(tzfile.o)
 .bss           0x080c9bcc        0x4 C:\Projects\AADS\xCore/3rdparty/linux/lib/libc.a(opendir.o)
 .bss           0x080c9bd0        0x4 C:\Projects\AADS\xCore/3rdparty/linux/lib/libc.a(mktime.o)
 .bss           0x080c9bd4       0x34 C:\Projects\AADS\xCore/3rdparty/linux/lib/libc.a(dl-profile.o)
 *fill*         0x080c9c08       0x18 00
 .bss           0x080c9c20       0xac C:\Projects\AADS\xCore/3rdparty/linux/lib/libc.a(profil.o)
 .bss           0x080c9ccc        0xc C:\Projects\AADS\xCore/3rdparty/linux/lib/libpthread.a(manager.o)
 .bss           0x080c9cd8       0x10 C:\Projects\AADS\xCore/3rdparty/linux/lib/libpthread.a(pthread.o)
 .bss           0x080c9ce8        0x8 C:\Projects\AADS\xCore/3rdparty/linux/lib/libpthread.a(spinlock.o)
 *fill*         0x080c9cf0       0x10 00
 .bss           0x080c9d00      0x464 .\Linux-debug\main.obj
                0x080c9d60                PacketBuffer
                0x080c9d30                PatchList
                0x080c9d00                LocalAddress
                0x080c9d40                LookupList
                0x080c9d20                MasterServer
                0x080ca160                TotalServers
                0x080c9d10                RemoteAddress
 *fill*         0x080ca164       0x1c 00
 .bss           0x080ca180     0x2b44 \Projects\AADS\Support\netlib\Linux-Debug\NetLib.lib(NetCommon.obj)
                0x080cccac                SendBufferHead
                0x080ca1a0                ISettings
                0x080cccb8                NET_NRecvPackets
                0x080ccc90                NET_ReceiveTime
                0x080cccb0                SendBufferValid
                0x080cccc0                NET_NRecvBytes
                0x080ca220                SendBuffers
                0x080ccca8                SendBufferTail
                0x080ccc78                NET_SendTime
                0x080cccbc                NET_NSendBytes
                0x080cccb4                NET_NSendPackets
 .bss           0x080cccc4       0x1c \Projects\AADS\Support\netlib\Linux-Debug\NetLib.lib(netlib.obj)
 .bss           0x080ccce0      0x400 C:\Projects\AADS\xCore/3rdparty/linux/lib/libc.a(strerror.o)
 .bss           0x080cd0e0        0x8 C:\Projects\AADS\xCore/3rdparty/linux/lib/libc.a(poll.o)
 .bss           0x080cd0e8       0x34 C:\Projects\AADS\xCore/3rdparty/linux/lib/libc.a(gethstbyad.o)
 .bss           0x080cd11c        0x8 C:\Projects\AADS\xCore/3rdparty/linux/lib/libc.a(gethstbyad_r.o)
 .bss           0x080cd124       0x34 C:\Projects\AADS\xCore/3rdparty/linux/lib/libc.a(gethstbynm.o)
 .bss           0x080cd158        0x8 C:\Projects\AADS\xCore/3rdparty/linux/lib/libc.a(gethstbynm_r.o)
 .bss           0x080cd160       0x20 C:\Projects\AADS\xCore/3rdparty/linux/lib/libc.a(res_hconf.o)
 .bss           0x080cd180       0x24 C:\Projects\AADS\xCore/3rdparty/linux/lib/libc.a(nsswitch.o)
 .bss           0x080cd1a4       0x18 C:\Projects\AADS\xCore/3rdparty/linux/lib/libc.a(opensock.o)
 *(.bss.*)
 *(.gnu.linkonce.b.*)
 *(COMMON)
 COMMON         0x080cd1bc        0x4 C:\Projects\AADS\xCore/3rdparty/linux/lib/libc.a(assert.o)
                                  0x0 (size before relaxing)
                0x080cd1bc                __assert_program_name
 COMMON         0x080cd1c0        0x4 C:\Projects\AADS\xCore/3rdparty/linux/lib/libc.a(dcigettext.o)
                                  0x0 (size before relaxing)
                0x080cd1c0                _nl_domain_bindings
 COMMON         0x080cd1c4        0x4 C:\Projects\AADS\xCore/3rdparty/linux/lib/libc.a(loadmsgcat.o)
                                  0x0 (size before relaxing)
                0x080cd1c4                _nl_msg_cat_cntr
 COMMON         0x080cd1c8        0x4 C:\Projects\AADS\xCore/3rdparty/linux/lib/libc.a(malloc.o)
                                  0x0 (size before relaxing)
                0x080cd1c8                __libc_tsd_MALLOC_data
 COMMON         0x080cd1cc        0x4 C:\Projects\AADS\xCore/3rdparty/linux/lib/libc.a(fcntl.o)
                                  0x0 (size before relaxing)
                0x080cd1cc                __have_no_fcntl64
 COMMON         0x080cd1d0       0x14 C:\Projects\AADS\xCore/3rdparty/linux/lib/libc.a(dl-load.o)
                                  0x0 (size before relaxing)
                0x080cd1d0                _dl_clktck
                0x080cd1d4                _dl_init_all_dirs
                0x080cd1d8                _dl_initfirst
                0x080cd1dc                _dl_all_dirs
                0x080cd1e0                _dl_pagesize
 COMMON         0x080cd1e4        0x4 C:\Projects\AADS\xCore/3rdparty/linux/lib/libc.a(dl-lookup.o)
                                  0x0 (size before relaxing)
                0x080cd1e4                _dl_num_relocations
 COMMON         0x080cd1e8       0x60 C:\Projects\AADS\xCore/3rdparty/linux/lib/libc.a(dl-support.o)
                                  0x0 (size before relaxing)
                0x080cd1e8                _dl_nloaded
                0x080cd1ec                __libc_stack_end
                0x080cd1f0                _dl_debug_symbols
                0x080cd1f4                _dl_initial_searchlist
                0x080cd204                _dl_platformlen
                0x080cd208                _dl_debug_impcalls
                0x080cd20c                _dl_debug_versions
                0x080cd210                _dl_profile
                0x080cd214                _dl_debug_bindings
                0x080cd218                _dl_bind_not
                0x080cd21c                _dl_platform
                0x080cd220                _dl_lazy
                0x080cd224                _dl_debug_reloc
                0x080cd228                _dl_origin_path
                0x080cd22c                _dl_debug_files
                0x080cd230                _dl_debug_libs
                0x080cd234                _dl_verbose
                0x080cd238                _dl_loaded
                0x080cd23c                _dl_profile_map
                0x080cd240                _dl_inhibit_rpath
                0x080cd244                _dl_search_paths
 COMMON         0x080cd248        0x8 C:\Projects\AADS\xCore/3rdparty/linux/lib/libc.a(init-first.o)
                                  0x0 (size before relaxing)
                0x080cd248                __libc_argc
                0x080cd24c                __libc_argv
 COMMON         0x080cd250        0x8 C:\Projects\AADS\xCore/3rdparty/linux/lib/libc.a(gconv_db.o)
                                  0x0 (size before relaxing)
                0x080cd250                __gconv_modules_db
                0x080cd254                __gconv_alias_db
 COMMON         0x080cd258        0x8 C:\Projects\AADS\xCore/3rdparty/linux/lib/libc.a(gconv_conf.o)
                                  0x0 (size before relaxing)
                0x080cd258                __gconv_max_path_elem_len
                0x080cd25c                __gconv_path_elem
 COMMON         0x080cd260       0x18 C:\Projects\AADS\xCore/3rdparty/linux/lib/libc.a(setlocale.o)
                                  0x0 (size before relaxing)
                0x080cd260                __libc_setlocale_lock
 COMMON         0x080cd278        0x4 C:\Projects\AADS\xCore/3rdparty/linux/lib/libc.a(sigaction.o)
                                  0x0 (size before relaxing)
                0x080cd278                __libc_missing_rt_sigs
 *fill*         0x080cd27c        0x4 00
 COMMON         0x080cd280      0x404 C:\Projects\AADS\xCore/3rdparty/linux/lib/libc.a(reg-printf.o)
                                  0x0 (size before relaxing)
                0x080cd280                __printf_arginfo_table
                0x080cd680                __printf_function_table
 COMMON         0x080cd684        0x8 C:\Projects\AADS\xCore/3rdparty/linux/lib/libc.a(tzset.o)
                                  0x0 (size before relaxing)
                0x080cd684                tzstring_list
                0x080cd688                __tzname_cur_max
 COMMON         0x080cd68c        0x4 C:\Projects\AADS\xCore/3rdparty/linux/lib/libc.a(tzfile.o)
                                  0x0 (size before relaxing)
                0x080cd68c                __use_tzfile
 COMMON         0x080cd690        0x4 C:\Projects\AADS\xCore/3rdparty/linux/lib/libc.a(getdents.o)
                                  0x0 (size before relaxing)
                0x080cd690                __have_no_getdents64
 COMMON         0x080cd694        0x4 C:\Projects\AADS\xCore/3rdparty/linux/lib/libc.a(getopt_init.o)
                                  0x0 (size before relaxing)
                0x080cd694                __getopt_nonoption_flags
 COMMON         0x080cd698        0x4 C:\Projects\AADS\xCore/3rdparty/linux/lib/libc.a(xstat64.o)
                                  0x0 (size before relaxing)
                0x080cd698                __have_no_stat64
 COMMON         0x080cd69c        0x4 C:\Projects\AADS\xCore/3rdparty/linux/lib/libc.a(getrlimit.o)
                                  0x0 (size before relaxing)
                0x080cd69c                __have_no_new_getrlimit
 COMMON         0x080cd6a0       0x2c C:\Projects\AADS\xCore/3rdparty/linux/lib/libc.a(localtime.o)
                                  0x0 (size before relaxing)
                0x080cd6a0                _tmbuf
 COMMON         0x080cd6cc        0x4 C:\Projects\AADS\xCore/3rdparty/linux/lib/libc.a(dl-deps.o)
                                  0x0 (size before relaxing)
                0x080cd6cc                _dl_global_scope_alloc
 COMMON         0x080cd6d0       0x14 C:\Projects\AADS\xCore/3rdparty/linux/lib/libc.a(dl-debug.o)
                                  0x0 (size before relaxing)
                0x080cd6d0                _r_debug
 COMMON         0x080cd6e4       0x14 C:\Projects\AADS\xCore/3rdparty/linux/lib/libpthread.a(manager.o)
                                  0x0 (size before relaxing)
                0x080cd6e4                __pthread_nonstandard_stacks
                0x080cd6e8                __pthread_threads_events
                0x080cd6f0                __pthread_last_event
                0x080cd6f4                __pthread_threads_debug
 COMMON         0x080cd6f8       0x20 C:\Projects\AADS\xCore/3rdparty/linux/lib/libpthread.a(pthread.o)
                                  0x0 (size before relaxing)
                0x080cd6f8                __pthread_exit_code
                0x080cd6fc                __pthread_manager_thread_bos
                0x080cd700                __pthread_initial_thread_bos
                0x080cd704                __pthread_smp_kernel
                0x080cd708                __pthread_manager_reader
                0x080cd70c                __pthread_exit_requested
                0x080cd710                __pthread_manager_thread_tos
                0x080cd714                __pthread_max_stacksize
 *fill*         0x080cd718        0x8 00
 COMMON         0x080cd720      0x200 C:\Projects\AADS\xCore/3rdparty/linux/lib/libc.a(res_libc.o)
                                  0x0 (size before relaxing)
                0x080cd720                _res
 COMMON         0x080cd920        0x4 C:\Projects\AADS\xCore/3rdparty/linux/lib/libc.a(nscd_gethst_r.o)
                                  0x0 (size before relaxing)
                0x080cd920                __nss_not_use_nscd_hosts
 *fill*         0x080cd924       0x1c 00
 COMMON         0x080cd940       0x30 C:\Projects\AADS\xCore/3rdparty/linux/lib/libc.a(res_hconf.o)
                                  0x0 (size before relaxing)
                0x080cd940                _res_hconf
 COMMON         0x080cd970        0x4 C:\Projects\AADS\xCore/3rdparty/linux/lib/libc.a(hosts-lookup.o)
                                  0x0 (size before relaxing)
                0x080cd970                __nss_hosts_database
 COMMON         0x080cd974        0x4 C:\Projects\AADS\xCore/3rdparty/linux/lib/libc.a(nscd_getgr_r.o)
                                  0x0 (size before relaxing)
                0x080cd974                __nss_not_use_nscd_group
                0x080cd978                . = ALIGN (0x4)
                0x080cd978                . = ALIGN (0x4)
                0x080cd978                _end = .
                0x080cd978                PROVIDE (end, .)

.stab           0x00000000   0x102b94
 *(.stab)
 .stab          0x00000000     0x19f8 .\Linux-debug\bytestream.obj
                               0x1a04 (size before relaxing)
 .stab          0x000019f8     0x4038 \Projects\AADS\xCore\x_files\Linux-Debug\x_files.lib(x_plus.obj)
                               0x46c8 (size before relaxing)
 .stab          0x00005a30     0x1ab8 \Projects\AADS\xCore\x_files\Linux-Debug\x_files.lib(x_memory.obj)
                               0x225c (size before relaxing)
 .stab          0x000074e8      0xac8 \Projects\AADS\xCore\x_files\Linux-Debug\x_files.lib(x_debug.obj)
                               0x138c (size before relaxing)
 .stab          0x00007fb0     0x10c8 \Projects\AADS\xCore\x_files\Linux-Debug\x_files.lib(x_time.obj)
                               0x1818 (size before relaxing)
 .stab          0x00009078     0x1ecc \Projects\AADS\xCore\x_files\Linux-Debug\x_files.lib(x_threads.obj)
                               0x2964 (size before relaxing)
 .stab          0x0000af44     0x6ee8 \Projects\AADS\xCore\x_files\Linux-Debug\x_files.lib(x_string.obj)
                               0x7764 (size before relaxing)
 .stab          0x00011e2c     0x1830 \Projects\AADS\xCore\x_files\Linux-Debug\x_files.lib(x_stdio.obj)
                               0x20dc (size before relaxing)
 .stab          0x0001365c      0xabc \Projects\AADS\xCore\x_files\Linux-Debug\x_files.lib(x_mutex.obj)
                               0x1254 (size before relaxing)
 .stab          0x00014118      0x75c \Projects\AADS\xCore\x_files\Linux-Debug\x_files.lib(x_files.obj)
                               0x123c (size before relaxing)
 .stab          0x00014874      0x318 \Projects\AADS\xCore\x_files\Linux-Debug\x_files.lib(x_vsprintf.obj)
                                0xae0 (size before relaxing)
 .stab          0x00014b8c      0x780 C:\Projects\AADS\xCore/3rdparty/linux/lib/crt1.o
                                0x7b0 (size before relaxing)
 .stab          0x0001530c      0xc00 C:\Projects\AADS\xCore/3rdparty/linux/lib/libm.a(w_pow.o)
                                0xda4 (size before relaxing)
 .stab          0x00015f0c     0x1878 C:\Projects\AADS\xCore/3rdparty/linux/lib/libm.a(k_standard.o)
                               0x213c (size before relaxing)
 .stab          0x00017784      0x300 C:\Projects\AADS\xCore/3rdparty/linux/lib/libm.a(s_lib_version.o)
                                0xb58 (size before relaxing)
 .stab          0x00017a84      0x36c C:\Projects\AADS\xCore/3rdparty/linux/lib/libm.a(s_matherr.o)
                                0xbc4 (size before relaxing)
 .stab          0x00017df0       0x3c C:\Projects\AADS\xCore/3rdparty/linux/lib/libm.a(e_pow.o)
                                 0x48 (size before relaxing)
 .stab          0x00017e2c       0x3c C:\Projects\AADS\xCore/3rdparty/linux/lib/libm.a(s_copysign.o)
                                 0x48 (size before relaxing)
 .stab          0x00017e68       0x3c C:\Projects\AADS\xCore/3rdparty/linux/lib/libm.a(s_finite.o)
                                 0x48 (size before relaxing)
 .stab          0x00017ea4       0x3c C:\Projects\AADS\xCore/3rdparty/linux/lib/libm.a(s_rint.o)
                                 0x48 (size before relaxing)
 .stab          0x00017ee0      0xfd8 C:\Projects\AADS\xCore/3rdparty/linux/lib/libc.a(libc-start.o)
                               0x1530 (size before relaxing)
 .stab          0x00018eb8      0x528 C:\Projects\AADS\xCore/3rdparty/linux/lib/libc.a(check_fds.o)
                                0xd50 (size before relaxing)
 .stab          0x000193e0      0x1b0 C:\Projects\AADS\xCore/3rdparty/linux/lib/libc.a(errno-loc.o)
                                0x234 (size before relaxing)
 .stab          0x00019590      0x834 C:\Projects\AADS\xCore/3rdparty/linux/lib/libc.a(assert.o)
                               0x138c (size before relaxing)
 .stab          0x00019dc4      0x5ac C:\Projects\AADS\xCore/3rdparty/linux/lib/libc.a(dcgettext.o)
                                0xd80 (size before relaxing)
 .stab          0x0001a370     0x3f84 C:\Projects\AADS\xCore/3rdparty/linux/lib/libc.a(dcigettext.o)
                               0x4e0c (size before relaxing)
 .stab          0x0001e2f4      0x9e4 C:\Projects\AADS\xCore/3rdparty/linux/lib/libc.a(finddomain.o)
                               0x189c (size before relaxing)
 .stab          0x0001ecd8     0x1458 C:\Projects\AADS\xCore/3rdparty/linux/lib/libc.a(loadmsgcat.o)
                               0x2574 (size before relaxing)
 .stab          0x00020130      0xf90 C:\Projects\AADS\xCore/3rdparty/linux/lib/libc.a(localealias.o)
                               0x1ef0 (size before relaxing)
 .stab          0x000210c0     0x1134 C:\Projects\AADS\xCore/3rdparty/linux/lib/libc.a(l10nflist.o)
                               0x1a88 (size before relaxing)
 .stab          0x000221f4      0x834 C:\Projects\AADS\xCore/3rdparty/linux/lib/libc.a(explodename.o)
                               0x1110 (size before relaxing)
 .stab          0x00022a28     0x132c C:\Projects\AADS\xCore/3rdparty/linux/lib/libc.a(plural.o)
                               0x1df4 (size before relaxing)
 .stab          0x00023d54      0x3cc C:\Projects\AADS\xCore/3rdparty/linux/lib/libc.a(s_isnan.o)
                                0xc24 (size before relaxing)
 .stab          0x00024120     0x1044 C:\Projects\AADS\xCore/3rdparty/linux/lib/libc.a(abort.o)
                               0x19bc (size before relaxing)
 .stab          0x00025164      0x42c C:\Projects\AADS\xCore/3rdparty/linux/lib/libc.a(bsearch.o)
                                0xc78 (size before relaxing)
 .stab          0x00025590      0x930 C:\Projects\AADS\xCore/3rdparty/linux/lib/libc.a(msort.o)
                               0x12e4 (size before relaxing)
 .stab          0x00025ec0      0x9fc C:\Projects\AADS\xCore/3rdparty/linux/lib/libc.a(getenv.o)
                               0x111c (size before relaxing)
 .stab          0x000268bc      0x630 C:\Projects\AADS\xCore/3rdparty/linux/lib/libc.a(exit.o)
                               0x1260 (size before relaxing)
 .stab          0x00026eec      0x858 C:\Projects\AADS\xCore/3rdparty/linux/lib/libc.a(atexit.o)
                                0xfc0 (size before relaxing)
 .stab          0x00027744     0x1584 C:\Projects\AADS\xCore/3rdparty/linux/lib/libc.a(strtoul.o)
                               0x2148 (size before relaxing)
 .stab          0x00028cc8      0x5a0 C:\Projects\AADS\xCore/3rdparty/linux/lib/libc.a(fprintf.o)
                                0xcc0 (size before relaxing)
 .stab          0x00029268      0x3d8 C:\Projects\AADS\xCore/3rdparty/linux/lib/libc.a(printf.o)
                                0xcb4 (size before relaxing)
 .stab          0x00029640      0xd44 C:\Projects\AADS\xCore/3rdparty/linux/lib/libc.a(iofclose.o)
                               0x1890 (size before relaxing)
 .stab          0x0002a384      0x774 C:\Projects\AADS\xCore/3rdparty/linux/lib/libc.a(iofflush.o)
                               0x1680 (size before relaxing)
 .stab          0x0002aaf8      0x768 C:\Projects\AADS\xCore/3rdparty/linux/lib/libc.a(iofopen.o)
                               0x1770 (size before relaxing)
 .stab          0x0002b260      0x78c C:\Projects\AADS\xCore/3rdparty/linux/lib/libc.a(iofputs.o)
                               0x171c (size before relaxing)
 .stab          0x0002b9ec      0x6e4 C:\Projects\AADS\xCore/3rdparty/linux/lib/libc.a(iofread.o)
                               0x15c0 (size before relaxing)
 .stab          0x0002c0d0      0x78c C:\Projects\AADS\xCore/3rdparty/linux/lib/libc.a(ioftell.o)
                               0x177c (size before relaxing)
 .stab          0x0002c85c      0x72c C:\Projects\AADS\xCore/3rdparty/linux/lib/libc.a(iofwrite.o)
                               0x1608 (size before relaxing)
 .stab          0x0002cf88      0x72c C:\Projects\AADS\xCore/3rdparty/linux/lib/libc.a(ioseekoff.o)
                               0x1614 (size before relaxing)
 .stab          0x0002d6b4      0x708 C:\Projects\AADS\xCore/3rdparty/linux/lib/libc.a(iovsprintf.o)
                               0x15e4 (size before relaxing)
 .stab          0x0002ddbc     0x1998 C:\Projects\AADS\xCore/3rdparty/linux/lib/libc.a(wfileops.o)
                               0x2a54 (size before relaxing)
 .stab          0x0002f754      0x6c0 C:\Projects\AADS\xCore/3rdparty/linux/lib/libc.a(feof.o)
                               0x15c0 (size before relaxing)
 .stab          0x0002fe14      0x6d8 C:\Projects\AADS\xCore/3rdparty/linux/lib/libc.a(fseek.o)
                               0x1620 (size before relaxing)
 .stab          0x000304ec      0x624 C:\Projects\AADS\xCore/3rdparty/linux/lib/libc.a(fcloseall.o)
                               0x1584 (size before relaxing)
 .stab          0x00030b10      0x720 C:\Projects\AADS\xCore/3rdparty/linux/lib/libc.a(iofgets_u.o)
                               0x1680 (size before relaxing)
 .stab          0x00031230     0x2634 C:\Projects\AADS\xCore/3rdparty/linux/lib/libc.a(fileops.o)
                               0x39cc (size before relaxing)
 .stab          0x00033864     0x2ea4 C:\Projects\AADS\xCore/3rdparty/linux/lib/libc.a(genops.o)
                               0x3f00 (size before relaxing)
 .stab          0x00036708      0x624 C:\Projects\AADS\xCore/3rdparty/linux/lib/libc.a(stdfiles.o)
                               0x1500 (size before relaxing)
 .stab          0x00036d2c      0x600 C:\Projects\AADS\xCore/3rdparty/linux/lib/libc.a(stdio.o)
                               0x1548 (size before relaxing)
 .stab          0x0003732c      0xf48 C:\Projects\AADS\xCore/3rdparty/linux/lib/libc.a(strops.o)
                               0x1ed8 (size before relaxing)
 .stab          0x00038274     0x5850 C:\Projects\AADS\xCore/3rdparty/linux/lib/libc.a(malloc.o)
                               0x6450 (size before relaxing)
 .stab          0x0003dac4      0x228 C:\Projects\AADS\xCore/3rdparty/linux/lib/libc.a(morecore.o)
                                0x2b8 (size before relaxing)
 .stab          0x0003dcec       0x3c C:\Projects\AADS\xCore/3rdparty/linux/lib/libc.a(strchr.o)
                                 0x48 (size before relaxing)
 .stab          0x0003dd28      0x3f0 C:\Projects\AADS\xCore/3rdparty/linux/lib/libc.a(strcmp.o)
                                0xc0c (size before relaxing)
 .stab          0x0003e118      0x3cc C:\Projects\AADS\xCore/3rdparty/linux/lib/libc.a(strdup.o)
                                0xc84 (size before relaxing)
 .stab          0x0003e4e4      0x4f8 C:\Projects\AADS\xCore/3rdparty/linux/lib/libc.a(strncmp.o)
                                0xd14 (size before relaxing)
 .stab          0x0003e9dc       0x3c C:\Projects\AADS\xCore/3rdparty/linux/lib/libc.a(strrchr.o)
                                 0x48 (size before relaxing)
 .stab          0x0003ea18      0x57c C:\Projects\AADS\xCore/3rdparty/linux/lib/libc.a(strstr.o)
                                0xd5c (size before relaxing)
 .stab          0x0003ef94      0x558 C:\Projects\AADS\xCore/3rdparty/linux/lib/libc.a(memmove.o)
                                0xd74 (size before relaxing)
 .stab          0x0003f4ec      0x438 C:\Projects\AADS\xCore/3rdparty/linux/lib/libc.a(memset.o)
                                0xc54 (size before relaxing)
 .stab          0x0003f924      0x468 C:\Projects\AADS\xCore/3rdparty/linux/lib/libc.a(mempcpy.o)
                                0xc90 (size before relaxing)
 .stab          0x0003fd8c       0x3c C:\Projects\AADS\xCore/3rdparty/linux/lib/libc.a(stpcpy.o)
                                 0x48 (size before relaxing)
 .stab          0x0003fdc8      0x4d4 C:\Projects\AADS\xCore/3rdparty/linux/lib/libc.a(strcasecmp.o)
                                0xcf0 (size before relaxing)
 .stab          0x0004029c      0x474 C:\Projects\AADS\xCore/3rdparty/linux/lib/libc.a(memcpy.o)
                                0xc9c (size before relaxing)
 .stab          0x00040710       0x3c C:\Projects\AADS\xCore/3rdparty/linux/lib/libc.a(rawmemchr.o)
                                 0x48 (size before relaxing)
 .stab          0x0004074c      0x414 C:\Projects\AADS\xCore/3rdparty/linux/lib/libc.a(argz-count.o)
                                0xc48 (size before relaxing)
 .stab          0x00040b60      0x4a4 C:\Projects\AADS\xCore/3rdparty/linux/lib/libc.a(argz-stringify.o)
                                0xcd8 (size before relaxing)
 .stab          0x00041004      0x474 C:\Projects\AADS\xCore/3rdparty/linux/lib/libc.a(wmempcpy.o)
                                0xccc (size before relaxing)
 .stab          0x00041478     0x10ec C:\Projects\AADS\xCore/3rdparty/linux/lib/libc.a(wcsmbsload.o)
                               0x1f08 (size before relaxing)
 .stab          0x00042564       0x3c C:\Projects\AADS\xCore/3rdparty/linux/lib/libc.a(gettimeofday.o)
                                 0x48 (size before relaxing)
 .stab          0x000425a0       0x3c C:\Projects\AADS\xCore/3rdparty/linux/lib/libc.a(_exit.o)
                                 0x48 (size before relaxing)
 .stab          0x000425dc      0x9c0 C:\Projects\AADS\xCore/3rdparty/linux/lib/libc.a(sysconf.o)
                               0x14f4 (size before relaxing)
 .stab          0x00042f9c      0x27c C:\Projects\AADS\xCore/3rdparty/linux/lib/libc.a(environ.o)
                                0x708 (size before relaxing)
 .stab          0x00043218      0x9fc C:\Projects\AADS\xCore/3rdparty/linux/lib/libc.a(fxstat64.o)
                               0x10d4 (size before relaxing)
 .stab          0x00043c14       0x3c C:\Projects\AADS\xCore/3rdparty/linux/lib/libc.a(open.o)
                                 0x48 (size before relaxing)
 .stab          0x00043c50      0x3b4 C:\Projects\AADS\xCore/3rdparty/linux/lib/libc.a(open64.o)
                                0xb88 (size before relaxing)
 .stab          0x00044004       0x3c C:\Projects\AADS\xCore/3rdparty/linux/lib/libc.a(close.o)
                                 0x48 (size before relaxing)
 .stab          0x00044040       0x3c C:\Projects\AADS\xCore/3rdparty/linux/lib/libc.a(read.o)
                                 0x48 (size before relaxing)
 .stab          0x0004407c       0x3c C:\Projects\AADS\xCore/3rdparty/linux/lib/libc.a(write.o)
                                 0x48 (size before relaxing)
 .stab          0x000440b8      0x6b4 C:\Projects\AADS\xCore/3rdparty/linux/lib/libc.a(fcntl.o)
                                0xf6c (size before relaxing)
 .stab          0x0004476c     0x1248 C:\Projects\AADS\xCore/3rdparty/linux/lib/libc.a(getcwd.o)
                               0x1dd0 (size before relaxing)
 .stab          0x000459b4       0x3c C:\Projects\AADS\xCore/3rdparty/linux/lib/libc.a(readlink.o)
                                 0x48 (size before relaxing)
 .stab          0x000459f0      0x2e8 C:\Projects\AADS\xCore/3rdparty/linux/lib/libc.a(sbrk.o)
                                0x7f8 (size before relaxing)
 .stab          0x00045cd8      0x3e4 C:\Projects\AADS\xCore/3rdparty/linux/lib/libc.a(getpagesize.o)
                                0xc84 (size before relaxing)
 .stab          0x000460bc      0x3fc C:\Projects\AADS\xCore/3rdparty/linux/lib/libc.a(getdtsz.o)
                                0x984 (size before relaxing)
 .stab          0x000464b8      0x30c C:\Projects\AADS\xCore/3rdparty/linux/lib/libc.a(usleep.o)
                                0x7f8 (size before relaxing)
 .stab          0x000467c4       0x3c C:\Projects\AADS\xCore/3rdparty/linux/lib/libc.a(mmap.o)
                                 0x48 (size before relaxing)
 .stab          0x00046800       0x3c C:\Projects\AADS\xCore/3rdparty/linux/lib/libc.a(munmap.o)
                                 0x48 (size before relaxing)
 .stab          0x0004683c       0x3c C:\Projects\AADS\xCore/3rdparty/linux/lib/libc.a(mprotect.o)
                                 0x48 (size before relaxing)
 .stab          0x00046878     0x1410 C:\Projects\AADS\xCore/3rdparty/linux/lib/libc.a(tsearch.o)
                               0x1ce0 (size before relaxing)
 .stab          0x00047c88     0x14dc C:\Projects\AADS\xCore/3rdparty/linux/lib/libc.a(getsysstats.o)
                               0x1efc (size before relaxing)
 .stab          0x00049164      0x210 C:\Projects\AADS\xCore/3rdparty/linux/lib/libc.a(getclktck.o)
                                0x678 (size before relaxing)
 .stab          0x00049374      0x3b4 C:\Projects\AADS\xCore/3rdparty/linux/lib/libc.a(llseek.o)
                                0xba0 (size before relaxing)
 .stab          0x00049728       0x3c C:\Projects\AADS\xCore/3rdparty/linux/lib/libc.a(mremap.o)
                                 0x48 (size before relaxing)
 .stab          0x00049764      0x480 C:\Projects\AADS\xCore/3rdparty/linux/lib/libc.a(weaks.o)
                                0xdc8 (size before relaxing)
 .stab          0x00049be4      0x174 C:\Projects\AADS\xCore/3rdparty/linux/lib/libc.a(no-tsd.o)
                                0x1d4 (size before relaxing)
 .stab          0x00049d58     0x55f8 C:\Projects\AADS\xCore/3rdparty/linux/lib/libc.a(dl-load.o)
                               0x6384 (size before relaxing)
 .stab          0x0004f350      0xe4c C:\Projects\AADS\xCore/3rdparty/linux/lib/libc.a(dl-cache.o)
                               0x19e0 (size before relaxing)
 .stab          0x0005019c     0x61c8 C:\Projects\AADS\xCore/3rdparty/linux/lib/libc.a(dl-lookup.o)
                               0x72d8 (size before relaxing)
 .stab          0x00056364      0x954 C:\Projects\AADS\xCore/3rdparty/linux/lib/libc.a(dl-object.o)
                               0x186c (size before relaxing)
 .stab          0x00056cb8      0xa98 C:\Projects\AADS\xCore/3rdparty/linux/lib/libc.a(dl-error.o)
                               0x1974 (size before relaxing)
 .stab          0x00057750      0xb58 C:\Projects\AADS\xCore/3rdparty/linux/lib/libc.a(dl-misc.o)
                               0x1a4c (size before relaxing)
 .stab          0x000582a8      0xb64 C:\Projects\AADS\xCore/3rdparty/linux/lib/libc.a(dl-support.o)
                               0x1d34 (size before relaxing)
 .stab          0x00058e0c      0x240 C:\Projects\AADS\xCore/3rdparty/linux/lib/libc.a(enbl-secure.o)
                                0x714 (size before relaxing)
 .stab          0x0005904c      0x834 C:\Projects\AADS\xCore/3rdparty/linux/lib/libc.a(dl-origin.o)
                               0x17ac (size before relaxing)
 .stab          0x00059880      0x144 C:\Projects\AADS\xCore/3rdparty/linux/lib/libc.a(dl-procinfo.o)
                                0x168 (size before relaxing)
 .stab          0x000599c4      0xde0 C:\Projects\AADS\xCore/3rdparty/linux/lib/libc.a(init-first.o)
                               0x1c98 (size before relaxing)
 .stab          0x0005a7a4      0x390 C:\Projects\AADS\xCore/3rdparty/linux/lib/libc.a(set-init.o)
                                0xc00 (size before relaxing)
 .stab          0x0005ab34       0x3c C:\Projects\AADS\xCore/3rdparty/linux/lib/libc.a(sysdep.o)
                                 0x48 (size before relaxing)
 .stab          0x0005ab70     0x1140 C:\Projects\AADS\xCore/3rdparty/linux/lib/libc.a(gconv_open.o)
                               0x1a88 (size before relaxing)
 .stab          0x0005bcb0      0x93c C:\Projects\AADS\xCore/3rdparty/linux/lib/libc.a(gconv.o)
                                0xf30 (size before relaxing)
 .stab          0x0005c5ec      0x4b0 C:\Projects\AADS\xCore/3rdparty/linux/lib/libc.a(gconv_close.o)
                                0xe64 (size before relaxing)
 .stab          0x0005ca9c     0x2844 C:\Projects\AADS\xCore/3rdparty/linux/lib/libc.a(gconv_db.o)
                               0x2f94 (size before relaxing)
 .stab          0x0005f2e0     0x3030 C:\Projects\AADS\xCore/3rdparty/linux/lib/libc.a(gconv_conf.o)
                               0x3ea0 (size before relaxing)
 .stab          0x00062310      0x594 C:\Projects\AADS\xCore/3rdparty/linux/lib/libc.a(gconv_builtin.o)
                                0xfa8 (size before relaxing)
 .stab          0x000628a4     0x8814 C:\Projects\AADS\xCore/3rdparty/linux/lib/libc.a(gconv_simple.o)
                               0x936c (size before relaxing)
 .stab          0x0006b0b8     0x15c0 C:\Projects\AADS\xCore/3rdparty/linux/lib/libc.a(gconv_trans.o)
                               0x2274 (size before relaxing)
 .stab          0x0006c678      0xab0 C:\Projects\AADS\xCore/3rdparty/linux/lib/libc.a(gconv_dl.o)
                               0x1974 (size before relaxing)
 .stab          0x0006d128     0x1c50 C:\Projects\AADS\xCore/3rdparty/linux/lib/libc.a(setlocale.o)
                               0x2b2c (size before relaxing)
 .stab          0x0006ed78      0xda4 C:\Projects\AADS\xCore/3rdparty/linux/lib/libc.a(findlocale.o)
                               0x1aa0 (size before relaxing)
 .stab          0x0006fb1c      0xe70 C:\Projects\AADS\xCore/3rdparty/linux/lib/libc.a(loadlocale.o)
                               0x1cc8 (size before relaxing)
 .stab          0x0007098c      0x774 C:\Projects\AADS\xCore/3rdparty/linux/lib/libc.a(lc-ctype.o)
                                0xff0 (size before relaxing)
 .stab          0x00071100      0x3c0 C:\Projects\AADS\xCore/3rdparty/linux/lib/libc.a(lc-messages.o)
                                0xe64 (size before relaxing)
 .stab          0x000714c0      0x3c0 C:\Projects\AADS\xCore/3rdparty/linux/lib/libc.a(lc-monetary.o)
                                0xe64 (size before relaxing)
 .stab          0x00071880      0x3c0 C:\Projects\AADS\xCore/3rdparty/linux/lib/libc.a(lc-numeric.o)
                                0xe64 (size before relaxing)
 .stab          0x00071c40      0xdd4 C:\Projects\AADS\xCore/3rdparty/linux/lib/libc.a(lc-time.o)
                               0x1b54 (size before relaxing)
 .stab          0x00072a14      0x3c0 C:\Projects\AADS\xCore/3rdparty/linux/lib/libc.a(lc-paper.o)
                                0xe64 (size before relaxing)
 .stab          0x00072dd4      0x3c0 C:\Projects\AADS\xCore/3rdparty/linux/lib/libc.a(lc-name.o)
                                0xe64 (size before relaxing)
 .stab          0x00073194      0x3c0 C:\Projects\AADS\xCore/3rdparty/linux/lib/libc.a(lc-address.o)
                                0xe64 (size before relaxing)
 .stab          0x00073554      0x3c0 C:\Projects\AADS\xCore/3rdparty/linux/lib/libc.a(lc-telephone.o)
                                0xe64 (size before relaxing)
 .stab          0x00073914      0x3c0 C:\Projects\AADS\xCore/3rdparty/linux/lib/libc.a(lc-measurement.o)
                                0xe64 (size before relaxing)
 .stab          0x00073cd4      0x3c0 C:\Projects\AADS\xCore/3rdparty/linux/lib/libc.a(lc-identification.o)
                                0xe64 (size before relaxing)
 .stab          0x00074094      0x3cc C:\Projects\AADS\xCore/3rdparty/linux/lib/libc.a(lc-collate.o)
                                0xe7c (size before relaxing)
 .stab          0x00074460      0x504 C:\Projects\AADS\xCore/3rdparty/linux/lib/libc.a(C-ctype.o)
                                0xfb4 (size before relaxing)
 .stab          0x00074964      0x3c0 C:\Projects\AADS\xCore/3rdparty/linux/lib/libc.a(C-messages.o)
                                0xe64 (size before relaxing)
 .stab          0x00074d24      0x3cc C:\Projects\AADS\xCore/3rdparty/linux/lib/libc.a(C-monetary.o)
                                0xe70 (size before relaxing)
 .stab          0x000750f0      0x3c0 C:\Projects\AADS\xCore/3rdparty/linux/lib/libc.a(C-numeric.o)
                                0xe64 (size before relaxing)
 .stab          0x000754b0      0x3c0 C:\Projects\AADS\xCore/3rdparty/linux/lib/libc.a(C-time.o)
                                0xe64 (size before relaxing)
 .stab          0x00075870      0x3cc C:\Projects\AADS\xCore/3rdparty/linux/lib/libc.a(C-paper.o)
                                0xe7c (size before relaxing)
 .stab          0x00075c3c      0x3cc C:\Projects\AADS\xCore/3rdparty/linux/lib/libc.a(C-name.o)
                                0xe7c (size before relaxing)
 .stab          0x00076008      0x3cc C:\Projects\AADS\xCore/3rdparty/linux/lib/libc.a(C-address.o)
                                0xe7c (size before relaxing)
 .stab          0x000763d4      0x3cc C:\Projects\AADS\xCore/3rdparty/linux/lib/libc.a(C-telephone.o)
                                0xe7c (size before relaxing)
 .stab          0x000767a0      0x3cc C:\Projects\AADS\xCore/3rdparty/linux/lib/libc.a(C-measurement.o)
                                0xe7c (size before relaxing)
 .stab          0x00076b6c      0x3cc C:\Projects\AADS\xCore/3rdparty/linux/lib/libc.a(C-identification.o)
                                0xe7c (size before relaxing)
 .stab          0x00076f38      0x3e4 C:\Projects\AADS\xCore/3rdparty/linux/lib/libc.a(C-collate.o)
                                0xe94 (size before relaxing)
 .stab          0x0007731c      0x150 C:\Projects\AADS\xCore/3rdparty/linux/lib/libc.a(SYS_libc.o)
                                0x18c (size before relaxing)
 .stab          0x0007746c      0x3cc C:\Projects\AADS\xCore/3rdparty/linux/lib/libc.a(C_name.o)
                                0xe70 (size before relaxing)
 .stab          0x00077838      0x48c C:\Projects\AADS\xCore/3rdparty/linux/lib/libc.a(ctype-info.o)
                                0xf00 (size before relaxing)
 .stab          0x00077cc4      0x294 C:\Projects\AADS\xCore/3rdparty/linux/lib/libc.a(setfpucw.o)
                                0x3d8 (size before relaxing)
 .stab          0x00077f58      0x204 C:\Projects\AADS\xCore/3rdparty/linux/lib/libc.a(fpu_control.o)
                                0x348 (size before relaxing)
 .stab          0x0007815c       0x3c C:\Projects\AADS\xCore/3rdparty/linux/lib/libc.a(bsd-_setjmp.o)
                                 0x48 (size before relaxing)
 .stab          0x00078198      0x3d8 C:\Projects\AADS\xCore/3rdparty/linux/lib/libc.a(longjmp.o)
                                0xa74 (size before relaxing)
 .stab          0x00078570       0x3c C:\Projects\AADS\xCore/3rdparty/linux/lib/libc.a(__longjmp.o)
                                 0x48 (size before relaxing)
 .stab          0x000785ac      0x1c8 C:\Projects\AADS\xCore/3rdparty/linux/lib/libc.a(jmp-unwind.o)
                                0x288 (size before relaxing)
 .stab          0x00078774      0x360 C:\Projects\AADS\xCore/3rdparty/linux/lib/libc.a(raise.o)
                                0xab0 (size before relaxing)
 .stab          0x00078ad4      0x744 C:\Projects\AADS\xCore/3rdparty/linux/lib/libc.a(sigaction.o)
                               0x12c0 (size before relaxing)
 .stab          0x00079218      0x4e0 C:\Projects\AADS\xCore/3rdparty/linux/lib/libc.a(sigprocmask.o)
                                0xd5c (size before relaxing)
 .stab          0x000796f8       0x3c C:\Projects\AADS\xCore/3rdparty/linux/lib/libc.a(kill.o)
                                 0x48 (size before relaxing)
 .stab          0x00079734      0xad4 C:\Projects\AADS\xCore/3rdparty/linux/lib/libc.a(qsort.o)
                               0x1428 (size before relaxing)
 .stab          0x0007a208     0x10ec C:\Projects\AADS\xCore/3rdparty/linux/lib/libc.a(setenv.o)
                               0x1c38 (size before relaxing)
 .stab          0x0007b2f4     0x135c C:\Projects\AADS\xCore/3rdparty/linux/lib/libc.a(strtol.o)
                               0x213c (size before relaxing)
 .stab          0x0007c650      0x138 C:\Projects\AADS\xCore/3rdparty/linux/lib/libc.a(itoa-digits.o)
                                0x15c (size before relaxing)
 .stab          0x0007c788     0x46e0 C:\Projects\AADS\xCore/3rdparty/linux/lib/libc.a(vfprintf.o)
                               0x591c (size before relaxing)
 .stab          0x00080e68     0x2e08 C:\Projects\AADS\xCore/3rdparty/linux/lib/libc.a(printf_fp.o)
                               0x4110 (size before relaxing)
 .stab          0x00083c70      0x378 C:\Projects\AADS\xCore/3rdparty/linux/lib/libc.a(reg-printf.o)
                                0x4ec (size before relaxing)
 .stab          0x00083fe8     0x1bb4 C:\Projects\AADS\xCore/3rdparty/linux/lib/libc.a(printf_fphex.o)
                               0x3138 (size before relaxing)
 .stab          0x00085b9c      0x3f0 C:\Projects\AADS\xCore/3rdparty/linux/lib/libc.a(sscanf.o)
                                0xcd8 (size before relaxing)
 .stab          0x00085f8c      0x3fc C:\Projects\AADS\xCore/3rdparty/linux/lib/libc.a(lockfile.o)
                                0xcd8 (size before relaxing)
 .stab          0x00086388      0x75c C:\Projects\AADS\xCore/3rdparty/linux/lib/libc.a(filedoalloc.o)
                               0x1758 (size before relaxing)
 .stab          0x00086ae4      0x774 C:\Projects\AADS\xCore/3rdparty/linux/lib/libc.a(wfiledoalloc.o)
                               0x1770 (size before relaxing)
 .stab          0x00087258      0xaa4 C:\Projects\AADS\xCore/3rdparty/linux/lib/libc.a(iogetdelim.o)
                               0x1a70 (size before relaxing)
 .stab          0x00087cfc      0x9fc C:\Projects\AADS\xCore/3rdparty/linux/lib/libc.a(iogetline.o)
                               0x198c (size before relaxing)
 .stab          0x000886f8      0x75c C:\Projects\AADS\xCore/3rdparty/linux/lib/libc.a(iopadn.o)
                               0x1638 (size before relaxing)
 .stab          0x00088e54      0x6a8 C:\Projects\AADS\xCore/3rdparty/linux/lib/libc.a(iovsscanf.o)
                               0x15d8 (size before relaxing)
 .stab          0x000894fc      0x75c C:\Projects\AADS\xCore/3rdparty/linux/lib/libc.a(iowpadn.o)
                               0x1638 (size before relaxing)
 .stab          0x00089c58     0x204c C:\Projects\AADS\xCore/3rdparty/linux/lib/libc.a(wgenops.o)
                               0x312c (size before relaxing)
 .stab          0x0008bca4     0x12b4 C:\Projects\AADS\xCore/3rdparty/linux/lib/libc.a(iofwide.o)
                               0x270c (size before relaxing)
 .stab          0x0008cf58      0x3e4 C:\Projects\AADS\xCore/3rdparty/linux/lib/libc.a(strcpy.o)
                                0xc3c (size before relaxing)
 .stab          0x0008d33c      0x570 C:\Projects\AADS\xCore/3rdparty/linux/lib/libc.a(strndup.o)
                               0x1158 (size before relaxing)
 .stab          0x0008d8ac      0x780 C:\Projects\AADS\xCore/3rdparty/linux/lib/libc.a(_strerror.o)
                               0x13f8 (size before relaxing)
 .stab          0x0008e02c      0x36c C:\Projects\AADS\xCore/3rdparty/linux/lib/libc.a(strnlen.o)
                                0xb4c (size before relaxing)
 .stab          0x0008e398       0x3c C:\Projects\AADS\xCore/3rdparty/linux/lib/libc.a(strpbrk.o)
                                 0x48 (size before relaxing)
 .stab          0x0008e3d4       0x3c C:\Projects\AADS\xCore/3rdparty/linux/lib/libc.a(memchr.o)
                                 0x48 (size before relaxing)
 .stab          0x0008e410      0x588 C:\Projects\AADS\xCore/3rdparty/linux/lib/libc.a(argz-ctsep.o)
                                0xec4 (size before relaxing)
 .stab          0x0008e998      0x540 C:\Projects\AADS\xCore/3rdparty/linux/lib/libc.a(argz-addsep.o)
                                0xe7c (size before relaxing)
 .stab          0x0008eed8      0x24c C:\Projects\AADS\xCore/3rdparty/linux/lib/libc.a(wcschr.o)
                                0x384 (size before relaxing)
 .stab          0x0008f124      0x390 C:\Projects\AADS\xCore/3rdparty/linux/lib/libc.a(wmemcpy.o)
                                0xc30 (size before relaxing)
 .stab          0x0008f4b4      0x390 C:\Projects\AADS\xCore/3rdparty/linux/lib/libc.a(wmemmove.o)
                                0xc30 (size before relaxing)
 .stab          0x0008f844      0x228 C:\Projects\AADS\xCore/3rdparty/linux/lib/libc.a(mbrlen.o)
                                0x360 (size before relaxing)
 .stab          0x0008fa6c      0xa2c C:\Projects\AADS\xCore/3rdparty/linux/lib/libc.a(mbrtowc.o)
                               0x14c4 (size before relaxing)
 .stab          0x00090498      0x8a0 C:\Projects\AADS\xCore/3rdparty/linux/lib/libc.a(wcrtomb.o)
                               0x1680 (size before relaxing)
 .stab          0x00090d38      0xa50 C:\Projects\AADS\xCore/3rdparty/linux/lib/libc.a(wcsrtombs.o)
                               0x1758 (size before relaxing)
 .stab          0x00091788      0x900 C:\Projects\AADS\xCore/3rdparty/linux/lib/libc.a(mbsnrtowcs.o)
                               0x16d4 (size before relaxing)
 .stab          0x00092088      0x2b8 C:\Projects\AADS\xCore/3rdparty/linux/lib/libc.a(wcsnlen.o)
                                0x3f0 (size before relaxing)
 .stab          0x00092340     0x1854 C:\Projects\AADS\xCore/3rdparty/linux/lib/libc.a(tzset.o)
                               0x2628 (size before relaxing)
 .stab          0x00093b94     0x1f14 C:\Projects\AADS\xCore/3rdparty/linux/lib/libc.a(tzfile.o)
                               0x2cdc (size before relaxing)
 .stab          0x00095aa8      0xaa4 C:\Projects\AADS\xCore/3rdparty/linux/lib/libc.a(opendir.o)
                               0x19b0 (size before relaxing)
 .stab          0x0009654c      0x594 C:\Projects\AADS\xCore/3rdparty/linux/lib/libc.a(closedir.o)
                               0x1134 (size before relaxing)
 .stab          0x00096ae0      0x6fc C:\Projects\AADS\xCore/3rdparty/linux/lib/libc.a(readdir.o)
                               0x12d8 (size before relaxing)
 .stab          0x000971dc      0xd14 C:\Projects\AADS\xCore/3rdparty/linux/lib/libc.a(getdents.o)
                               0x18cc (size before relaxing)
 .stab          0x00097ef0       0x3c C:\Projects\AADS\xCore/3rdparty/linux/lib/libc.a(nanosleep.o)
                                 0x48 (size before relaxing)
 .stab          0x00097f2c       0x3c C:\Projects\AADS\xCore/3rdparty/linux/lib/libc.a(getpid.o)
                                 0x48 (size before relaxing)
 .stab          0x00097f68      0x3cc C:\Projects\AADS\xCore/3rdparty/linux/lib/libc.a(getuid.o)
                                0x960 (size before relaxing)
 .stab          0x00098334      0x3c0 C:\Projects\AADS\xCore/3rdparty/linux/lib/libc.a(geteuid.o)
                                0x954 (size before relaxing)
 .stab          0x000986f4      0x3c0 C:\Projects\AADS\xCore/3rdparty/linux/lib/libc.a(getgid.o)
                                0x954 (size before relaxing)
 .stab          0x00098ab4      0x3c0 C:\Projects\AADS\xCore/3rdparty/linux/lib/libc.a(getegid.o)
                                0x954 (size before relaxing)
 .stab          0x00098e74      0x60c C:\Projects\AADS\xCore/3rdparty/linux/lib/libc.a(getopt_init.o)
                                0xee8 (size before relaxing)
 .stab          0x00099480      0x984 C:\Projects\AADS\xCore/3rdparty/linux/lib/libc.a(lxstat.o)
                               0x12d8 (size before relaxing)
 .stab          0x00099e04      0x774 C:\Projects\AADS\xCore/3rdparty/linux/lib/libc.a(xstat64.o)
                               0x10e0 (size before relaxing)
 .stab          0x0009a578       0x3c C:\Projects\AADS\xCore/3rdparty/linux/lib/libc.a(lseek.o)
                                 0x48 (size before relaxing)
 .stab          0x0009a5b4       0x3c C:\Projects\AADS\xCore/3rdparty/linux/lib/libc.a(access.o)
                                 0x48 (size before relaxing)
 .stab          0x0009a5f0      0x2f4 C:\Projects\AADS\xCore/3rdparty/linux/lib/libc.a(isatty.o)
                                0x7c8 (size before relaxing)
 .stab          0x0009a8e4      0x624 C:\Projects\AADS\xCore/3rdparty/linux/lib/libc.a(tcgetattr.o)
                                0xf24 (size before relaxing)
 .stab          0x0009af08      0x3fc C:\Projects\AADS\xCore/3rdparty/linux/lib/libc.a(getrlimit.o)
                                0x984 (size before relaxing)
 .stab          0x0009b304      0x36c C:\Projects\AADS\xCore/3rdparty/linux/lib/libc.a(brk.o)
                                0x900 (size before relaxing)
 .stab          0x0009b670       0x3c C:\Projects\AADS\xCore/3rdparty/linux/lib/libc.a(ioctl.o)
                                 0x48 (size before relaxing)
 .stab          0x0009b6ac     0x2244 C:\Projects\AADS\xCore/3rdparty/linux/lib/libc.a(mntent_r.o)
                               0x2dcc (size before relaxing)
 .stab          0x0009d8f0      0x3e4 C:\Projects\AADS\xCore/3rdparty/linux/lib/libc.a(init-misc.o)
                                0xbc4 (size before relaxing)
 .stab          0x0009dcd4      0x6d8 C:\Projects\AADS\xCore/3rdparty/linux/lib/libc.a(dl-profstub.o)
                               0x1170 (size before relaxing)
 .stab          0x0009e3ac      0xbdc C:\Projects\AADS\xCore/3rdparty/linux/lib/libc.a(dl-libc.o)
                               0x1740 (size before relaxing)
 .stab          0x0009ef88      0x4ec C:\Projects\AADS\xCore/3rdparty/linux/lib/libc.a(mb_cur_max.o)
                               0x1110 (size before relaxing)
 .stab          0x0009f474      0x3c0 C:\Projects\AADS\xCore/3rdparty/linux/lib/libc.a(s_isinf.o)
                                0xc18 (size before relaxing)
 .stab          0x0009f834      0x3cc C:\Projects\AADS\xCore/3rdparty/linux/lib/libc.a(s_isinfl.o)
                                0xc24 (size before relaxing)
 .stab          0x0009fc00      0x3d8 C:\Projects\AADS\xCore/3rdparty/linux/lib/libc.a(s_isnanl.o)
                                0xc30 (size before relaxing)
 .stab          0x0009ffd8      0x2dc C:\Projects\AADS\xCore/3rdparty/linux/lib/libc.a(cmp.o)
                                0x42c (size before relaxing)
 .stab          0x000a02b4      0x894 C:\Projects\AADS\xCore/3rdparty/linux/lib/libc.a(divrem.o)
                                0xa5c (size before relaxing)
 .stab          0x000a0b48       0x3c C:\Projects\AADS\xCore/3rdparty/linux/lib/libc.a(lshift.o)
                                 0x48 (size before relaxing)
 .stab          0x000a0b84       0x3c C:\Projects\AADS\xCore/3rdparty/linux/lib/libc.a(rshift.o)
                                 0x48 (size before relaxing)
 .stab          0x000a0bc0      0x804 C:\Projects\AADS\xCore/3rdparty/linux/lib/libc.a(mul.o)
                                0x9cc (size before relaxing)
 .stab          0x000a13c4       0x3c C:\Projects\AADS\xCore/3rdparty/linux/lib/libc.a(mul_1.o)
                                 0x48 (size before relaxing)
 .stab          0x000a1400     0x1248 C:\Projects\AADS\xCore/3rdparty/linux/lib/libc.a(mul_n.o)
                               0x1410 (size before relaxing)
 .stab          0x000a2648       0x3c C:\Projects\AADS\xCore/3rdparty/linux/lib/libc.a(sub_n.o)
                                 0x48 (size before relaxing)
 .stab          0x000a2684       0x3c C:\Projects\AADS\xCore/3rdparty/linux/lib/libc.a(submul_1.o)
                                 0x48 (size before relaxing)
 .stab          0x000a26c0      0x570 C:\Projects\AADS\xCore/3rdparty/linux/lib/libc.a(dbl2mpn.o)
                                0xfb4 (size before relaxing)
 .stab          0x000a2c30      0x57c C:\Projects\AADS\xCore/3rdparty/linux/lib/libc.a(ldbl2mpn.o)
                                0xfc0 (size before relaxing)
 .stab          0x000a31ac      0x348 C:\Projects\AADS\xCore/3rdparty/linux/lib/libc.a(fpioconst.o)
                                0x4a4 (size before relaxing)
 .stab          0x000a34f4      0x5a0 C:\Projects\AADS\xCore/3rdparty/linux/lib/libc.a(_itoa.o)
                                0x7b0 (size before relaxing)
 .stab          0x000a3a94      0x60c C:\Projects\AADS\xCore/3rdparty/linux/lib/libc.a(_itowa.o)
                                0x900 (size before relaxing)
 .stab          0x000a40a0      0x138 C:\Projects\AADS\xCore/3rdparty/linux/lib/libc.a(itoa-udigits.o)
                                0x15c (size before relaxing)
 .stab          0x000a41d8      0x1e0 C:\Projects\AADS\xCore/3rdparty/linux/lib/libc.a(itowa-digits.o)
                                0x318 (size before relaxing)
 .stab          0x000a43b8     0x4554 C:\Projects\AADS\xCore/3rdparty/linux/lib/libc.a(vfscanf.o)
                               0x594c (size before relaxing)
 .stab          0x000a890c      0x270 C:\Projects\AADS\xCore/3rdparty/linux/lib/libc.a(errlist.o)
                                0x3b4 (size before relaxing)
 .stab          0x000a8b7c      0x6d8 C:\Projects\AADS\xCore/3rdparty/linux/lib/libc.a(iofread_u.o)
                               0x1638 (size before relaxing)
 .stab          0x000a9254      0x294 C:\Projects\AADS\xCore/3rdparty/linux/lib/libc.a(wcslen.o)
                                0x3cc (size before relaxing)
 .stab          0x000a94e8      0x384 C:\Projects\AADS\xCore/3rdparty/linux/lib/libc.a(mbsinit.o)
                                0xc24 (size before relaxing)
 .stab          0x000a986c      0x3e4 C:\Projects\AADS\xCore/3rdparty/linux/lib/libc.a(offtime.o)
                                0x84c (size before relaxing)
 .stab          0x000a9c50      0x240 C:\Projects\AADS\xCore/3rdparty/linux/lib/libc.a(localtime.o)
                                0x6a8 (size before relaxing)
 .stab          0x000a9e90      0xb28 C:\Projects\AADS\xCore/3rdparty/linux/lib/libc.a(mktime.o)
                               0x1344 (size before relaxing)
 .stab          0x000aa9b8     0x1a10 C:\Projects\AADS\xCore/3rdparty/linux/lib/libc.a(dl-profile.o)
                               0x2d24 (size before relaxing)
 .stab          0x000ac3c8     0x1200 C:\Projects\AADS\xCore/3rdparty/linux/lib/libc.a(dl-open.o)
                               0x23c4 (size before relaxing)
 .stab          0x000ad5c8      0xe88 C:\Projects\AADS\xCore/3rdparty/linux/lib/libc.a(dl-close.o)
                               0x1f14 (size before relaxing)
 .stab          0x000ae450     0x156c C:\Projects\AADS\xCore/3rdparty/linux/lib/libc.a(strtoll.o)
                               0x234c (size before relaxing)
 .stab          0x000af9bc     0x156c C:\Projects\AADS\xCore/3rdparty/linux/lib/libc.a(strtoull.o)
                               0x234c (size before relaxing)
 .stab          0x000b0f28     0x648c C:\Projects\AADS\xCore/3rdparty/linux/lib/libc.a(strtof.o)
                               0x7518 (size before relaxing)
 .stab          0x000b73b4     0x6a50 C:\Projects\AADS\xCore/3rdparty/linux/lib/libc.a(strtod.o)
                               0x7adc (size before relaxing)
 .stab          0x000bde04     0x6b34 C:\Projects\AADS\xCore/3rdparty/linux/lib/libc.a(strtold.o)
                               0x7b3c (size before relaxing)
 .stab          0x000c4938       0x3c C:\Projects\AADS\xCore/3rdparty/linux/lib/libc.a(add_n.o)
                                 0x48 (size before relaxing)
 .stab          0x000c4974       0x3c C:\Projects\AADS\xCore/3rdparty/linux/lib/libc.a(addmul_1.o)
                                 0x48 (size before relaxing)
 .stab          0x000c49b0      0x27c C:\Projects\AADS\xCore/3rdparty/linux/lib/libc.a(mpn2flt.o)
                                0x4d4 (size before relaxing)
 .stab          0x000c4c2c      0x288 C:\Projects\AADS\xCore/3rdparty/linux/lib/libc.a(mpn2dbl.o)
                                0x4e0 (size before relaxing)
 .stab          0x000c4eb4      0x318 C:\Projects\AADS\xCore/3rdparty/linux/lib/libc.a(mpn2ldbl.o)
                                0x648 (size before relaxing)
 .stab          0x000c51cc      0x558 C:\Projects\AADS\xCore/3rdparty/linux/lib/libc.a(strncpy.o)
                                0xd74 (size before relaxing)
 .stab          0x000c5724      0x360 C:\Projects\AADS\xCore/3rdparty/linux/lib/libc.a(ffs.o)
                                0xb40 (size before relaxing)
 .stab          0x000c5a84      0x4f8 C:\Projects\AADS\xCore/3rdparty/linux/lib/libc.a(strncase.o)
                                0xd14 (size before relaxing)
 .stab          0x000c5f7c      0x804 C:\Projects\AADS\xCore/3rdparty/linux/lib/libc.a(profil.o)
                               0x1290 (size before relaxing)
 .stab          0x000c6780      0x354 C:\Projects\AADS\xCore/3rdparty/linux/lib/libc.a(prof-freq.o)
                                0xb10 (size before relaxing)
 .stab          0x000c6ad4     0x14dc C:\Projects\AADS\xCore/3rdparty/linux/lib/libc.a(dl-reloc.o)
                               0x25bc (size before relaxing)
 .stab          0x000c7fb0     0x14a0 C:\Projects\AADS\xCore/3rdparty/linux/lib/libc.a(dl-deps.o)
                               0x24f0 (size before relaxing)
 .stab          0x000c9450      0xae0 C:\Projects\AADS\xCore/3rdparty/linux/lib/libc.a(dl-runtime.o)
                               0x1a7c (size before relaxing)
 .stab          0x000c9f30      0x7bc C:\Projects\AADS\xCore/3rdparty/linux/lib/libc.a(dl-init.o)
                               0x14b8 (size before relaxing)
 .stab          0x000ca6ec      0x468 C:\Projects\AADS\xCore/3rdparty/linux/lib/libc.a(dl-debug.o)
                               0x11a0 (size before relaxing)
 .stab          0x000cab54     0x1998 C:\Projects\AADS\xCore/3rdparty/linux/lib/libc.a(dl-version.o)
                               0x288c (size before relaxing)
 .stab          0x000cc4ec      0x4a4 C:\Projects\AADS\xCore/3rdparty/linux/lib/libc.a(sigfillset.o)
                                0xf6c (size before relaxing)
 .stab          0x000cc990       0x3c C:\Projects\AADS\xCore/3rdparty/linux/lib/libc.a(setitimer.o)
                                 0x48 (size before relaxing)
 .stab          0x000cc9cc     0x1efc C:\Projects\AADS\xCore/3rdparty/linux/lib/libpthread.a(cancel.o)
                               0x327c (size before relaxing)
 .stab          0x000ce8c8     0x28d4 C:\Projects\AADS\xCore/3rdparty/linux/lib/libpthread.a(manager.o)
                               0x40d4 (size before relaxing)
 .stab          0x000d119c     0x3bf4 C:\Projects\AADS\xCore/3rdparty/linux/lib/libpthread.a(pthread.o)
                               0x5a84 (size before relaxing)
 .stab          0x000d4d90     0x18f0 C:\Projects\AADS\xCore/3rdparty/linux/lib/libpthread.a(specific.o)
                               0x3234 (size before relaxing)
 .stab          0x000d6680     0x1ec0 C:\Projects\AADS\xCore/3rdparty/linux/lib/libpthread.a(semaphore.o)
                               0x396c (size before relaxing)
 .stab          0x000d8540     0x2a30 C:\Projects\AADS\xCore/3rdparty/linux/lib/libpthread.a(spinlock.o)
                               0x4500 (size before relaxing)
 .stab          0x000daf70     0x1914 C:\Projects\AADS\xCore/3rdparty/linux/lib/libpthread.a(wrapsyscall.o)
                               0x2958 (size before relaxing)
 .stab          0x000dc884      0xb10 C:\Projects\AADS\xCore/3rdparty/linux/lib/libpthread.a(events.o)
                               0x2454 (size before relaxing)
 .stab          0x000dd394     0x2b38 .\Linux-debug\main.obj
                               0x33a8 (size before relaxing)
 .stab          0x000dfecc     0x1bf0 \Projects\AADS\Support\netlib\Linux-Debug\NetLib.lib(NetCommon.obj)
                               0x2394 (size before relaxing)
 .stab          0x000e1abc     0x1794 \Projects\AADS\Support\netlib\Linux-Debug\NetLib.lib(netlib.obj)
                               0x2298 (size before relaxing)
 .stab          0x000e3250      0xaf8 C:\Projects\AADS\xCore/3rdparty/linux/lib/libgcc.a(_udivdi3.o)
                                0xb28 (size before relaxing)
 .stab          0x000e3d48      0x3d8 C:\Projects\AADS\xCore/3rdparty/linux/lib/libgcc.a(_umoddi3.o)
                                0xb1c (size before relaxing)
 .stab          0x000e4120       0x3c C:\Projects\AADS\xCore/3rdparty/linux/lib/libc.a(setjmp.o)
                                 0x48 (size before relaxing)
 .stab          0x000e415c      0x2f4 C:\Projects\AADS\xCore/3rdparty/linux/lib/libc.a(sigjmp.o)
                                0xa50 (size before relaxing)
 .stab          0x000e4450      0x4bc C:\Projects\AADS\xCore/3rdparty/linux/lib/libc.a(sigsuspend.o)
                                0xd38 (size before relaxing)
 .stab          0x000e490c      0x4a4 C:\Projects\AADS\xCore/3rdparty/linux/lib/libc.a(sigempty.o)
                                0xf6c (size before relaxing)
 .stab          0x000e4db0      0x510 C:\Projects\AADS\xCore/3rdparty/linux/lib/libc.a(sigaddset.o)
                                0xfd8 (size before relaxing)
 .stab          0x000e52c0      0x51c C:\Projects\AADS\xCore/3rdparty/linux/lib/libc.a(sigdelset.o)
                                0xff0 (size before relaxing)
 .stab          0x000e57dc      0x3a8 C:\Projects\AADS\xCore/3rdparty/linux/lib/libc.a(on_exit.o)
                                0xc24 (size before relaxing)
 .stab          0x000e5b84      0x8a0 C:\Projects\AADS\xCore/3rdparty/linux/lib/libc.a(system.o)
                               0x15a8 (size before relaxing)
 .stab          0x000e6424      0x4bc C:\Projects\AADS\xCore/3rdparty/linux/lib/libc.a(strverscmp.o)
                                0xcd8 (size before relaxing)
 .stab          0x000e68e0      0x438 C:\Projects\AADS\xCore/3rdparty/linux/lib/libc.a(strerror.o)
                                0xf48 (size before relaxing)
 .stab          0x000e6d18       0x3c C:\Projects\AADS\xCore/3rdparty/linux/lib/libc.a(uname.o)
                                 0x48 (size before relaxing)
 .stab          0x000e6d54      0x3d8 C:\Projects\AADS\xCore/3rdparty/linux/lib/libc.a(wait.o)
                                0xc30 (size before relaxing)
 .stab          0x000e712c      0x4c8 C:\Projects\AADS\xCore/3rdparty/linux/lib/libc.a(waitpid.o)
                               0x1134 (size before relaxing)
 .stab          0x000e75f4       0x3c C:\Projects\AADS\xCore/3rdparty/linux/lib/libc.a(wait4.o)
                                 0x48 (size before relaxing)
 .stab          0x000e7630       0x3c C:\Projects\AADS\xCore/3rdparty/linux/lib/libc.a(pause.o)
                                 0x48 (size before relaxing)
 .stab          0x000e766c       0x3c C:\Projects\AADS\xCore/3rdparty/linux/lib/libc.a(fork.o)
                                 0x48 (size before relaxing)
 .stab          0x000e76a8      0x384 C:\Projects\AADS\xCore/3rdparty/linux/lib/libc.a(execve.o)
                                0x93c (size before relaxing)
 .stab          0x000e7a2c       0x3c C:\Projects\AADS\xCore/3rdparty/linux/lib/libc.a(getppid.o)
                                 0x48 (size before relaxing)
 .stab          0x000e7a68       0x3c C:\Projects\AADS\xCore/3rdparty/linux/lib/libc.a(sched_getp.o)
                                 0x48 (size before relaxing)
 .stab          0x000e7aa4       0x3c C:\Projects\AADS\xCore/3rdparty/linux/lib/libc.a(sched_sets.o)
                                 0x48 (size before relaxing)
 .stab          0x000e7ae0       0x3c C:\Projects\AADS\xCore/3rdparty/linux/lib/libc.a(sched_gets.o)
                                 0x48 (size before relaxing)
 .stab          0x000e7b1c       0x3c C:\Projects\AADS\xCore/3rdparty/linux/lib/libc.a(sched_yield.o)
                                 0x48 (size before relaxing)
 .stab          0x000e7b58       0x3c C:\Projects\AADS\xCore/3rdparty/linux/lib/libc.a(sched_primax.o)
                                 0x48 (size before relaxing)
 .stab          0x000e7b94      0x510 C:\Projects\AADS\xCore/3rdparty/linux/lib/libc.a(pread.o)
                                0xae0 (size before relaxing)
 .stab          0x000e80a4      0x510 C:\Projects\AADS\xCore/3rdparty/linux/lib/libc.a(pwrite.o)
                                0xae0 (size before relaxing)
 .stab          0x000e85b4      0x510 C:\Projects\AADS\xCore/3rdparty/linux/lib/libc.a(pread64.o)
                                0xae0 (size before relaxing)
 .stab          0x000e8ac4      0x510 C:\Projects\AADS\xCore/3rdparty/linux/lib/libc.a(pwrite64.o)
                                0xae0 (size before relaxing)
 .stab          0x000e8fd4       0x3c C:\Projects\AADS\xCore/3rdparty/linux/lib/libc.a(pipe.o)
                                 0x48 (size before relaxing)
 .stab          0x000e9010      0xcfc C:\Projects\AADS\xCore/3rdparty/linux/lib/libc.a(poll.o)
                               0x180c (size before relaxing)
 .stab          0x000e9d0c      0x258 C:\Projects\AADS\xCore/3rdparty/linux/lib/libc.a(tcdrain.o)
                                0x6f0 (size before relaxing)
 .stab          0x000e9f64      0x594 C:\Projects\AADS\xCore/3rdparty/linux/lib/libc.a(setrlimit.o)
                                0xf24 (size before relaxing)
 .stab          0x000ea4f8      0x45c C:\Projects\AADS\xCore/3rdparty/linux/lib/libc.a(gethostname.o)
                                0xd50 (size before relaxing)
 .stab          0x000ea954       0x3c C:\Projects\AADS\xCore/3rdparty/linux/lib/libc.a(select.o)
                                 0x48 (size before relaxing)
 .stab          0x000ea990       0x3c C:\Projects\AADS\xCore/3rdparty/linux/lib/libc.a(fsync.o)
                                 0x48 (size before relaxing)
 .stab          0x000ea9cc       0x3c C:\Projects\AADS\xCore/3rdparty/linux/lib/libc.a(msync.o)
                                 0x48 (size before relaxing)
 .stab          0x000eaa08      0x6c0 C:\Projects\AADS\xCore/3rdparty/linux/lib/libc.a(sysctl.o)
                                0x8c4 (size before relaxing)
 .stab          0x000eb0c8       0x3c C:\Projects\AADS\xCore/3rdparty/linux/lib/libc.a(clone.o)
                                 0x48 (size before relaxing)
 .stab          0x000eb104       0x3c C:\Projects\AADS\xCore/3rdparty/linux/lib/libc.a(accept.o)
                                 0x48 (size before relaxing)
 .stab          0x000eb140       0x3c C:\Projects\AADS\xCore/3rdparty/linux/lib/libc.a(bind.o)
                                 0x48 (size before relaxing)
 .stab          0x000eb17c       0x3c C:\Projects\AADS\xCore/3rdparty/linux/lib/libc.a(connect.o)
                                 0x48 (size before relaxing)
 .stab          0x000eb1b8       0x3c C:\Projects\AADS\xCore/3rdparty/linux/lib/libc.a(recv.o)
                                 0x48 (size before relaxing)
 .stab          0x000eb1f4       0x3c C:\Projects\AADS\xCore/3rdparty/linux/lib/libc.a(recvfrom.o)
                                 0x48 (size before relaxing)
 .stab          0x000eb230       0x3c C:\Projects\AADS\xCore/3rdparty/linux/lib/libc.a(recvmsg.o)
                                 0x48 (size before relaxing)
 .stab          0x000eb26c       0x3c C:\Projects\AADS\xCore/3rdparty/linux/lib/libc.a(send.o)
                                 0x48 (size before relaxing)
 .stab          0x000eb2a8       0x3c C:\Projects\AADS\xCore/3rdparty/linux/lib/libc.a(sendmsg.o)
                                 0x48 (size before relaxing)
 .stab          0x000eb2e4       0x3c C:\Projects\AADS\xCore/3rdparty/linux/lib/libc.a(sendto.o)
                                 0x48 (size before relaxing)
 .stab          0x000eb320       0x3c C:\Projects\AADS\xCore/3rdparty/linux/lib/libc.a(setsockopt.o)
                                 0x48 (size before relaxing)
 .stab          0x000eb35c       0x3c C:\Projects\AADS\xCore/3rdparty/linux/lib/libc.a(socket.o)
                                 0x48 (size before relaxing)
 .stab          0x000eb398      0x918 C:\Projects\AADS\xCore/3rdparty/linux/lib/libc.a(res_libc.o)
                               0x177c (size before relaxing)
 .stab          0x000ebcb0       0x3c C:\Projects\AADS\xCore/3rdparty/linux/lib/libc.a(htonl.o)
                                 0x48 (size before relaxing)
 .stab          0x000ebcec       0x3c C:\Projects\AADS\xCore/3rdparty/linux/lib/libc.a(htons.o)
                                 0x48 (size before relaxing)
 .stab          0x000ebd28      0x54c C:\Projects\AADS\xCore/3rdparty/linux/lib/libc.a(herrno.o)
                                0xfa8 (size before relaxing)
 .stab          0x000ec274      0xe28 C:\Projects\AADS\xCore/3rdparty/linux/lib/libc.a(gethstbyad.o)
                               0x2118 (size before relaxing)
 .stab          0x000ed09c      0xeb8 C:\Projects\AADS\xCore/3rdparty/linux/lib/libc.a(gethstbyad_r.o)
                               0x1f8c (size before relaxing)
 .stab          0x000edf54      0xbf4 C:\Projects\AADS\xCore/3rdparty/linux/lib/libc.a(gethstbynm.o)
                               0x231c (size before relaxing)
 .stab          0x000eeb48      0xabc C:\Projects\AADS\xCore/3rdparty/linux/lib/libc.a(gethstbynm_r.o)
                               0x2040 (size before relaxing)
 .stab          0x000ef604      0x39c C:\Projects\AADS\xCore/3rdparty/linux/lib/libc.a(in6_addr.o)
                                0xe70 (size before relaxing)
 .stab          0x000ef9a0     0x1560 C:\Projects\AADS\xCore/3rdparty/linux/lib/libc.a(nscd_gethst_r.o)
                               0x2784 (size before relaxing)
 .stab          0x000f0f00      0x840 C:\Projects\AADS\xCore/3rdparty/linux/lib/libc.a(readv.o)
                               0x1380 (size before relaxing)
 .stab          0x000f1740     0x20ac C:\Projects\AADS\xCore/3rdparty/linux/lib/libc.a(res_init.o)
                               0x3348 (size before relaxing)
 .stab          0x000f37ec     0x1c74 C:\Projects\AADS\xCore/3rdparty/linux/lib/libc.a(res_hconf.o)
                               0x2f70 (size before relaxing)
 .stab          0x000f5460     0x65f4 C:\Projects\AADS\xCore/3rdparty/linux/lib/libc.a(nsswitch.o)
                               0x7b24 (size before relaxing)
 .stab          0x000fba54     0x1494 C:\Projects\AADS\xCore/3rdparty/linux/lib/libc.a(digits_dots.o)
                               0x29b8 (size before relaxing)
 .stab          0x000fcee8      0x774 C:\Projects\AADS\xCore/3rdparty/linux/lib/libc.a(hosts-lookup.o)
                               0x192c (size before relaxing)
 .stab          0x000fd65c     0x117c C:\Projects\AADS\xCore/3rdparty/linux/lib/libc.a(nscd_getgr_r.o)
                               0x20a0 (size before relaxing)
 .stab          0x000fe7d8      0x7b0 C:\Projects\AADS\xCore/3rdparty/linux/lib/libc.a(snprintf.o)
                               0x15fc (size before relaxing)
 .stab          0x000fef88      0x834 C:\Projects\AADS\xCore/3rdparty/linux/lib/libc.a(getline.o)
                               0x15cc (size before relaxing)
 .stab          0x000ff7bc      0x7f8 C:\Projects\AADS\xCore/3rdparty/linux/lib/libc.a(vsnprintf.o)
                               0x1728 (size before relaxing)
 .stab          0x000fffb4      0x7bc C:\Projects\AADS\xCore/3rdparty/linux/lib/libc.a(libc_fatal.o)
                               0x1560 (size before relaxing)
 .stab          0x00100770       0x3c C:\Projects\AADS\xCore/3rdparty/linux/lib/libc.a(strchrnul.o)
                                 0x48 (size before relaxing)
 .stab          0x001007ac      0x87c C:\Projects\AADS\xCore/3rdparty/linux/lib/libc.a(writev.o)
                               0x13d4 (size before relaxing)
 .stab          0x00101028      0x6a8 C:\Projects\AADS\xCore/3rdparty/linux/lib/libc.a(opensock.o)
                               0x14a0 (size before relaxing)
 .stab          0x001016d0      0x840 C:\Projects\AADS\xCore/3rdparty/linux/lib/libc.a(inet_addr.o)
                               0x1554 (size before relaxing)
 .stab          0x00101f10      0xc84 C:\Projects\AADS\xCore/3rdparty/linux/lib/libc.a(inet_pton.o)
                               0x1b60 (size before relaxing)

.stabstr        0x00000000    0xb4d94
 *(.stabstr)
 .stabstr       0x00000000    0xb4d94 .\Linux-debug\bytestream.obj
                                  0x0 (size before relaxing)

.stab.excl
 *(.stab.excl)

.stab.exclstr
 *(.stab.exclstr)

.stab.index
 *(.stab.index)

.stab.indexstr
 *(.stab.indexstr)

.comment        0x00000000     0x2dc6
 *(.comment)
 .comment       0x00000000       0x27 .\Linux-debug\bytestream.obj
 .comment       0x00000027       0x27 \Projects\AADS\xCore\x_files\Linux-Debug\x_files.lib(x_plus.obj)
 .comment       0x0000004e       0x27 \Projects\AADS\xCore\x_files\Linux-Debug\x_files.lib(x_memory.obj)
 .comment       0x00000075       0x27 \Projects\AADS\xCore\x_files\Linux-Debug\x_files.lib(x_debug.obj)
 .comment       0x0000009c       0x27 \Projects\AADS\xCore\x_files\Linux-Debug\x_files.lib(x_time.obj)
 .comment       0x000000c3       0x27 \Projects\AADS\xCore\x_files\Linux-Debug\x_files.lib(x_threads.obj)
 .comment       0x000000ea       0x27 \Projects\AADS\xCore\x_files\Linux-Debug\x_files.lib(x_string.obj)
 .comment       0x00000111       0x27 \Projects\AADS\xCore\x_files\Linux-Debug\x_files.lib(x_stdio.obj)
 .comment       0x00000138       0x27 \Projects\AADS\xCore\x_files\Linux-Debug\x_files.lib(x_mutex.obj)
 .comment       0x0000015f       0x27 \Projects\AADS\xCore\x_files\Linux-Debug\x_files.lib(x_files.obj)
 .comment       0x00000186       0x27 \Projects\AADS\xCore\x_files\Linux-Debug\x_files.lib(x_vsprintf.obj)
 .comment       0x000001ad       0x26 C:\Projects\AADS\xCore/3rdparty/linux/lib/crti.o
 .comment       0x000001d3       0x26 C:\Projects\AADS\xCore/3rdparty/linux/lib/crtbegin.o
 .comment       0x000001f9       0x26 C:\Projects\AADS\xCore/3rdparty/linux/lib/crtend.o
 .comment       0x0000021f       0x26 C:\Projects\AADS\xCore/3rdparty/linux/lib/crtn.o
 .comment       0x00000245       0x26 C:\Projects\AADS\xCore/3rdparty/linux/lib/crt1.o
 .comment       0x0000026b       0x26 C:\Projects\AADS\xCore/3rdparty/linux/lib/libm.a(w_pow.o)
 .comment       0x00000291       0x26 C:\Projects\AADS\xCore/3rdparty/linux/lib/libm.a(k_standard.o)
 .comment       0x000002b7       0x26 C:\Projects\AADS\xCore/3rdparty/linux/lib/libm.a(s_lib_version.o)
 .comment       0x000002dd       0x26 C:\Projects\AADS\xCore/3rdparty/linux/lib/libm.a(s_matherr.o)
 .comment       0x00000303       0x26 C:\Projects\AADS\xCore/3rdparty/linux/lib/libc.a(libc-start.o)
 .comment       0x00000329       0x26 C:\Projects\AADS\xCore/3rdparty/linux/lib/libc.a(check_fds.o)
 .comment       0x0000034f       0x26 C:\Projects\AADS\xCore/3rdparty/linux/lib/libc.a(errno-loc.o)
 .comment       0x00000375       0x26 C:\Projects\AADS\xCore/3rdparty/linux/lib/libc.a(assert.o)
 .comment       0x0000039b       0x26 C:\Projects\AADS\xCore/3rdparty/linux/lib/libc.a(dcgettext.o)
 .comment       0x000003c1       0x26 C:\Projects\AADS\xCore/3rdparty/linux/lib/libc.a(dcigettext.o)
 .comment       0x000003e7       0x26 C:\Projects\AADS\xCore/3rdparty/linux/lib/libc.a(finddomain.o)
 .comment       0x0000040d       0x26 C:\Projects\AADS\xCore/3rdparty/linux/lib/libc.a(loadmsgcat.o)
 .comment       0x00000433       0x26 C:\Projects\AADS\xCore/3rdparty/linux/lib/libc.a(localealias.o)
 .comment       0x00000459       0x26 C:\Projects\AADS\xCore/3rdparty/linux/lib/libc.a(l10nflist.o)
 .comment       0x0000047f       0x26 C:\Projects\AADS\xCore/3rdparty/linux/lib/libc.a(explodename.o)
 .comment       0x000004a5       0x26 C:\Projects\AADS\xCore/3rdparty/linux/lib/libc.a(plural.o)
 .comment       0x000004cb       0x26 C:\Projects\AADS\xCore/3rdparty/linux/lib/libc.a(s_isnan.o)
 .comment       0x000004f1       0x26 C:\Projects\AADS\xCore/3rdparty/linux/lib/libc.a(abort.o)
 .comment       0x00000517       0x26 C:\Projects\AADS\xCore/3rdparty/linux/lib/libc.a(bsearch.o)
 .comment       0x0000053d       0x26 C:\Projects\AADS\xCore/3rdparty/linux/lib/libc.a(msort.o)
 .comment       0x00000563       0x26 C:\Projects\AADS\xCore/3rdparty/linux/lib/libc.a(getenv.o)
 .comment       0x00000589       0x26 C:\Projects\AADS\xCore/3rdparty/linux/lib/libc.a(exit.o)
 .comment       0x000005af       0x26 C:\Projects\AADS\xCore/3rdparty/linux/lib/libc.a(atexit.o)
 .comment       0x000005d5       0x26 C:\Projects\AADS\xCore/3rdparty/linux/lib/libc.a(strtoul.o)
 .comment       0x000005fb       0x26 C:\Projects\AADS\xCore/3rdparty/linux/lib/libc.a(fprintf.o)
 .comment       0x00000621       0x26 C:\Projects\AADS\xCore/3rdparty/linux/lib/libc.a(printf.o)
 .comment       0x00000647       0x26 C:\Projects\AADS\xCore/3rdparty/linux/lib/libc.a(iofclose.o)
 .comment       0x0000066d       0x26 C:\Projects\AADS\xCore/3rdparty/linux/lib/libc.a(iofflush.o)
 .comment       0x00000693       0x26 C:\Projects\AADS\xCore/3rdparty/linux/lib/libc.a(iofopen.o)
 .comment       0x000006b9       0x26 C:\Projects\AADS\xCore/3rdparty/linux/lib/libc.a(iofputs.o)
 .comment       0x000006df       0x26 C:\Projects\AADS\xCore/3rdparty/linux/lib/libc.a(iofread.o)
 .comment       0x00000705       0x26 C:\Projects\AADS\xCore/3rdparty/linux/lib/libc.a(ioftell.o)
 .comment       0x0000072b       0x26 C:\Projects\AADS\xCore/3rdparty/linux/lib/libc.a(iofwrite.o)
 .comment       0x00000751       0x26 C:\Projects\AADS\xCore/3rdparty/linux/lib/libc.a(ioseekoff.o)
 .comment       0x00000777       0x26 C:\Projects\AADS\xCore/3rdparty/linux/lib/libc.a(iovsprintf.o)
 .comment       0x0000079d       0x26 C:\Projects\AADS\xCore/3rdparty/linux/lib/libc.a(wfileops.o)
 .comment       0x000007c3       0x26 C:\Projects\AADS\xCore/3rdparty/linux/lib/libc.a(feof.o)
 .comment       0x000007e9       0x26 C:\Projects\AADS\xCore/3rdparty/linux/lib/libc.a(fseek.o)
 .comment       0x0000080f       0x26 C:\Projects\AADS\xCore/3rdparty/linux/lib/libc.a(fcloseall.o)
 .comment       0x00000835       0x26 C:\Projects\AADS\xCore/3rdparty/linux/lib/libc.a(iofgets_u.o)
 .comment       0x0000085b       0x26 C:\Projects\AADS\xCore/3rdparty/linux/lib/libc.a(fileops.o)
 .comment       0x00000881       0x26 C:\Projects\AADS\xCore/3rdparty/linux/lib/libc.a(genops.o)
 .comment       0x000008a7       0x26 C:\Projects\AADS\xCore/3rdparty/linux/lib/libc.a(stdfiles.o)
 .comment       0x000008cd       0x26 C:\Projects\AADS\xCore/3rdparty/linux/lib/libc.a(stdio.o)
 .comment       0x000008f3       0x26 C:\Projects\AADS\xCore/3rdparty/linux/lib/libc.a(strops.o)
 .comment       0x00000919       0x26 C:\Projects\AADS\xCore/3rdparty/linux/lib/libc.a(malloc.o)
 .comment       0x0000093f       0x26 C:\Projects\AADS\xCore/3rdparty/linux/lib/libc.a(morecore.o)
 .comment       0x00000965       0x26 C:\Projects\AADS\xCore/3rdparty/linux/lib/libc.a(strcmp.o)
 .comment       0x0000098b       0x26 C:\Projects\AADS\xCore/3rdparty/linux/lib/libc.a(strdup.o)
 .comment       0x000009b1       0x26 C:\Projects\AADS\xCore/3rdparty/linux/lib/libc.a(strncmp.o)
 .comment       0x000009d7       0x26 C:\Projects\AADS\xCore/3rdparty/linux/lib/libc.a(strstr.o)
 .comment       0x000009fd       0x26 C:\Projects\AADS\xCore/3rdparty/linux/lib/libc.a(memmove.o)
 .comment       0x00000a23       0x26 C:\Projects\AADS\xCore/3rdparty/linux/lib/libc.a(memset.o)
 .comment       0x00000a49       0x26 C:\Projects\AADS\xCore/3rdparty/linux/lib/libc.a(mempcpy.o)
 .comment       0x00000a6f       0x26 C:\Projects\AADS\xCore/3rdparty/linux/lib/libc.a(strcasecmp.o)
 .comment       0x00000a95       0x26 C:\Projects\AADS\xCore/3rdparty/linux/lib/libc.a(memcpy.o)
 .comment       0x00000abb       0x26 C:\Projects\AADS\xCore/3rdparty/linux/lib/libc.a(argz-count.o)
 .comment       0x00000ae1       0x26 C:\Projects\AADS\xCore/3rdparty/linux/lib/libc.a(argz-stringify.o)
 .comment       0x00000b07       0x26 C:\Projects\AADS\xCore/3rdparty/linux/lib/libc.a(wmempcpy.o)
 .comment       0x00000b2d       0x26 C:\Projects\AADS\xCore/3rdparty/linux/lib/libc.a(wcsmbsload.o)
 .comment       0x00000b53       0x26 C:\Projects\AADS\xCore/3rdparty/linux/lib/libc.a(sysconf.o)
 .comment       0x00000b79       0x26 C:\Projects\AADS\xCore/3rdparty/linux/lib/libc.a(environ.o)
 .comment       0x00000b9f       0x26 C:\Projects\AADS\xCore/3rdparty/linux/lib/libc.a(fxstat64.o)
 .comment       0x00000bc5       0x26 C:\Projects\AADS\xCore/3rdparty/linux/lib/libc.a(open64.o)
 .comment       0x00000beb       0x26 C:\Projects\AADS\xCore/3rdparty/linux/lib/libc.a(fcntl.o)
 .comment       0x00000c11       0x26 C:\Projects\AADS\xCore/3rdparty/linux/lib/libc.a(getcwd.o)
 .comment       0x00000c37       0x26 C:\Projects\AADS\xCore/3rdparty/linux/lib/libc.a(sbrk.o)
 .comment       0x00000c5d       0x26 C:\Projects\AADS\xCore/3rdparty/linux/lib/libc.a(getpagesize.o)
 .comment       0x00000c83       0x26 C:\Projects\AADS\xCore/3rdparty/linux/lib/libc.a(getdtsz.o)
 .comment       0x00000ca9       0x26 C:\Projects\AADS\xCore/3rdparty/linux/lib/libc.a(usleep.o)
 .comment       0x00000ccf       0x26 C:\Projects\AADS\xCore/3rdparty/linux/lib/libc.a(tsearch.o)
 .comment       0x00000cf5       0x26 C:\Projects\AADS\xCore/3rdparty/linux/lib/libc.a(getsysstats.o)
 .comment       0x00000d1b       0x26 C:\Projects\AADS\xCore/3rdparty/linux/lib/libc.a(getclktck.o)
 .comment       0x00000d41       0x26 C:\Projects\AADS\xCore/3rdparty/linux/lib/libc.a(llseek.o)
 .comment       0x00000d67       0x26 C:\Projects\AADS\xCore/3rdparty/linux/lib/libc.a(weaks.o)
 .comment       0x00000d8d       0x26 C:\Projects\AADS\xCore/3rdparty/linux/lib/libc.a(no-tsd.o)
 .comment       0x00000db3       0x26 C:\Projects\AADS\xCore/3rdparty/linux/lib/libc.a(dl-load.o)
 .comment       0x00000dd9       0x26 C:\Projects\AADS\xCore/3rdparty/linux/lib/libc.a(dl-cache.o)
 .comment       0x00000dff       0x26 C:\Projects\AADS\xCore/3rdparty/linux/lib/libc.a(dl-lookup.o)
 .comment       0x00000e25       0x26 C:\Projects\AADS\xCore/3rdparty/linux/lib/libc.a(dl-object.o)
 .comment       0x00000e4b       0x26 C:\Projects\AADS\xCore/3rdparty/linux/lib/libc.a(dl-error.o)
 .comment       0x00000e71       0x26 C:\Projects\AADS\xCore/3rdparty/linux/lib/libc.a(dl-misc.o)
 .comment       0x00000e97       0x26 C:\Projects\AADS\xCore/3rdparty/linux/lib/libc.a(dl-support.o)
 .comment       0x00000ebd       0x26 C:\Projects\AADS\xCore/3rdparty/linux/lib/libc.a(enbl-secure.o)
 .comment       0x00000ee3       0x26 C:\Projects\AADS\xCore/3rdparty/linux/lib/libc.a(dl-origin.o)
 .comment       0x00000f09       0x26 C:\Projects\AADS\xCore/3rdparty/linux/lib/libc.a(dl-procinfo.o)
 .comment       0x00000f2f       0x26 C:\Projects\AADS\xCore/3rdparty/linux/lib/libc.a(init-first.o)
 .comment       0x00000f55       0x26 C:\Projects\AADS\xCore/3rdparty/linux/lib/libc.a(set-init.o)
 .comment       0x00000f7b       0x26 C:\Projects\AADS\xCore/3rdparty/linux/lib/libc.a(gconv_open.o)
 .comment       0x00000fa1       0x26 C:\Projects\AADS\xCore/3rdparty/linux/lib/libc.a(gconv.o)
 .comment       0x00000fc7       0x26 C:\Projects\AADS\xCore/3rdparty/linux/lib/libc.a(gconv_close.o)
 .comment       0x00000fed       0x26 C:\Projects\AADS\xCore/3rdparty/linux/lib/libc.a(gconv_db.o)
 .comment       0x00001013       0x26 C:\Projects\AADS\xCore/3rdparty/linux/lib/libc.a(gconv_conf.o)
 .comment       0x00001039       0x26 C:\Projects\AADS\xCore/3rdparty/linux/lib/libc.a(gconv_builtin.o)
 .comment       0x0000105f       0x26 C:\Projects\AADS\xCore/3rdparty/linux/lib/libc.a(gconv_simple.o)
 .comment       0x00001085       0x26 C:\Projects\AADS\xCore/3rdparty/linux/lib/libc.a(gconv_trans.o)
 .comment       0x000010ab       0x26 C:\Projects\AADS\xCore/3rdparty/linux/lib/libc.a(gconv_dl.o)
 .comment       0x000010d1       0x26 C:\Projects\AADS\xCore/3rdparty/linux/lib/libc.a(setlocale.o)
 .comment       0x000010f7       0x26 C:\Projects\AADS\xCore/3rdparty/linux/lib/libc.a(findlocale.o)
 .comment       0x0000111d       0x26 C:\Projects\AADS\xCore/3rdparty/linux/lib/libc.a(loadlocale.o)
 .comment       0x00001143       0x26 C:\Projects\AADS\xCore/3rdparty/linux/lib/libc.a(lc-ctype.o)
 .comment       0x00001169       0x26 C:\Projects\AADS\xCore/3rdparty/linux/lib/libc.a(lc-messages.o)
 .comment       0x0000118f       0x26 C:\Projects\AADS\xCore/3rdparty/linux/lib/libc.a(lc-monetary.o)
 .comment       0x000011b5       0x26 C:\Projects\AADS\xCore/3rdparty/linux/lib/libc.a(lc-numeric.o)
 .comment       0x000011db       0x26 C:\Projects\AADS\xCore/3rdparty/linux/lib/libc.a(lc-time.o)
 .comment       0x00001201       0x26 C:\Projects\AADS\xCore/3rdparty/linux/lib/libc.a(lc-paper.o)
 .comment       0x00001227       0x26 C:\Projects\AADS\xCore/3rdparty/linux/lib/libc.a(lc-name.o)
 .comment       0x0000124d       0x26 C:\Projects\AADS\xCore/3rdparty/linux/lib/libc.a(lc-address.o)
 .comment       0x00001273       0x26 C:\Projects\AADS\xCore/3rdparty/linux/lib/libc.a(lc-telephone.o)
 .comment       0x00001299       0x26 C:\Projects\AADS\xCore/3rdparty/linux/lib/libc.a(lc-measurement.o)
 .comment       0x000012bf       0x26 C:\Projects\AADS\xCore/3rdparty/linux/lib/libc.a(lc-identification.o)
 .comment       0x000012e5       0x26 C:\Projects\AADS\xCore/3rdparty/linux/lib/libc.a(lc-collate.o)
 .comment       0x0000130b       0x26 C:\Projects\AADS\xCore/3rdparty/linux/lib/libc.a(C-ctype.o)
 .comment       0x00001331       0x26 C:\Projects\AADS\xCore/3rdparty/linux/lib/libc.a(C-messages.o)
 .comment       0x00001357       0x26 C:\Projects\AADS\xCore/3rdparty/linux/lib/libc.a(C-monetary.o)
 .comment       0x0000137d       0x26 C:\Projects\AADS\xCore/3rdparty/linux/lib/libc.a(C-numeric.o)
 .comment       0x000013a3       0x26 C:\Projects\AADS\xCore/3rdparty/linux/lib/libc.a(C-time.o)
 .comment       0x000013c9       0x26 C:\Projects\AADS\xCore/3rdparty/linux/lib/libc.a(C-paper.o)
 .comment       0x000013ef       0x26 C:\Projects\AADS\xCore/3rdparty/linux/lib/libc.a(C-name.o)
 .comment       0x00001415       0x26 C:\Projects\AADS\xCore/3rdparty/linux/lib/libc.a(C-address.o)
 .comment       0x0000143b       0x26 C:\Projects\AADS\xCore/3rdparty/linux/lib/libc.a(C-telephone.o)
 .comment       0x00001461       0x26 C:\Projects\AADS\xCore/3rdparty/linux/lib/libc.a(C-measurement.o)
 .comment       0x00001487       0x26 C:\Projects\AADS\xCore/3rdparty/linux/lib/libc.a(C-identification.o)
 .comment       0x000014ad       0x26 C:\Projects\AADS\xCore/3rdparty/linux/lib/libc.a(C-collate.o)
 .comment       0x000014d3       0x26 C:\Projects\AADS\xCore/3rdparty/linux/lib/libc.a(SYS_libc.o)
 .comment       0x000014f9       0x26 C:\Projects\AADS\xCore/3rdparty/linux/lib/libc.a(C_name.o)
 .comment       0x0000151f       0x26 C:\Projects\AADS\xCore/3rdparty/linux/lib/libc.a(ctype-info.o)
 .comment       0x00001545       0x26 C:\Projects\AADS\xCore/3rdparty/linux/lib/libc.a(setfpucw.o)
 .comment       0x0000156b       0x26 C:\Projects\AADS\xCore/3rdparty/linux/lib/libc.a(fpu_control.o)
 .comment       0x00001591       0x26 C:\Projects\AADS\xCore/3rdparty/linux/lib/libc.a(longjmp.o)
 .comment       0x000015b7       0x26 C:\Projects\AADS\xCore/3rdparty/linux/lib/libc.a(jmp-unwind.o)
 .comment       0x000015dd       0x26 C:\Projects\AADS\xCore/3rdparty/linux/lib/libc.a(raise.o)
 .comment       0x00001603       0x26 C:\Projects\AADS\xCore/3rdparty/linux/lib/libc.a(sigaction.o)
 .comment       0x00001629       0x26 C:\Projects\AADS\xCore/3rdparty/linux/lib/libc.a(sigprocmask.o)
 .comment       0x0000164f       0x26 C:\Projects\AADS\xCore/3rdparty/linux/lib/libc.a(qsort.o)
 .comment       0x00001675       0x26 C:\Projects\AADS\xCore/3rdparty/linux/lib/libc.a(setenv.o)
 .comment       0x0000169b       0x26 C:\Projects\AADS\xCore/3rdparty/linux/lib/libc.a(strtol.o)
 .comment       0x000016c1       0x26 C:\Projects\AADS\xCore/3rdparty/linux/lib/libc.a(itoa-digits.o)
 .comment       0x000016e7       0x26 C:\Projects\AADS\xCore/3rdparty/linux/lib/libc.a(vfprintf.o)
 .comment       0x0000170d       0x26 C:\Projects\AADS\xCore/3rdparty/linux/lib/libc.a(printf_fp.o)
 .comment       0x00001733       0x26 C:\Projects\AADS\xCore/3rdparty/linux/lib/libc.a(reg-printf.o)
 .comment       0x00001759       0x26 C:\Projects\AADS\xCore/3rdparty/linux/lib/libc.a(printf_fphex.o)
 .comment       0x0000177f       0x26 C:\Projects\AADS\xCore/3rdparty/linux/lib/libc.a(sscanf.o)
 .comment       0x000017a5       0x26 C:\Projects\AADS\xCore/3rdparty/linux/lib/libc.a(lockfile.o)
 .comment       0x000017cb       0x26 C:\Projects\AADS\xCore/3rdparty/linux/lib/libc.a(filedoalloc.o)
 .comment       0x000017f1       0x26 C:\Projects\AADS\xCore/3rdparty/linux/lib/libc.a(wfiledoalloc.o)
 .comment       0x00001817       0x26 C:\Projects\AADS\xCore/3rdparty/linux/lib/libc.a(iogetdelim.o)
 .comment       0x0000183d       0x26 C:\Projects\AADS\xCore/3rdparty/linux/lib/libc.a(iogetline.o)
 .comment       0x00001863       0x26 C:\Projects\AADS\xCore/3rdparty/linux/lib/libc.a(iopadn.o)
 .comment       0x00001889       0x26 C:\Projects\AADS\xCore/3rdparty/linux/lib/libc.a(iovsscanf.o)
 .comment       0x000018af       0x26 C:\Projects\AADS\xCore/3rdparty/linux/lib/libc.a(iowpadn.o)
 .comment       0x000018d5       0x26 C:\Projects\AADS\xCore/3rdparty/linux/lib/libc.a(wgenops.o)
 .comment       0x000018fb       0x26 C:\Projects\AADS\xCore/3rdparty/linux/lib/libc.a(iofwide.o)
 .comment       0x00001921       0x26 C:\Projects\AADS\xCore/3rdparty/linux/lib/libc.a(strcpy.o)
 .comment       0x00001947       0x26 C:\Projects\AADS\xCore/3rdparty/linux/lib/libc.a(strndup.o)
 .comment       0x0000196d       0x26 C:\Projects\AADS\xCore/3rdparty/linux/lib/libc.a(_strerror.o)
 .comment       0x00001993       0x26 C:\Projects\AADS\xCore/3rdparty/linux/lib/libc.a(strnlen.o)
 .comment       0x000019b9       0x26 C:\Projects\AADS\xCore/3rdparty/linux/lib/libc.a(argz-ctsep.o)
 .comment       0x000019df       0x26 C:\Projects\AADS\xCore/3rdparty/linux/lib/libc.a(argz-addsep.o)
 .comment       0x00001a05       0x26 C:\Projects\AADS\xCore/3rdparty/linux/lib/libc.a(wcschr.o)
 .comment       0x00001a2b       0x26 C:\Projects\AADS\xCore/3rdparty/linux/lib/libc.a(wmemcpy.o)
 .comment       0x00001a51       0x26 C:\Projects\AADS\xCore/3rdparty/linux/lib/libc.a(wmemmove.o)
 .comment       0x00001a77       0x26 C:\Projects\AADS\xCore/3rdparty/linux/lib/libc.a(mbrlen.o)
 .comment       0x00001a9d       0x26 C:\Projects\AADS\xCore/3rdparty/linux/lib/libc.a(mbrtowc.o)
 .comment       0x00001ac3       0x26 C:\Projects\AADS\xCore/3rdparty/linux/lib/libc.a(wcrtomb.o)
 .comment       0x00001ae9       0x26 C:\Projects\AADS\xCore/3rdparty/linux/lib/libc.a(wcsrtombs.o)
 .comment       0x00001b0f       0x26 C:\Projects\AADS\xCore/3rdparty/linux/lib/libc.a(mbsnrtowcs.o)
 .comment       0x00001b35       0x26 C:\Projects\AADS\xCore/3rdparty/linux/lib/libc.a(wcsnlen.o)
 .comment       0x00001b5b       0x26 C:\Projects\AADS\xCore/3rdparty/linux/lib/libc.a(tzset.o)
 .comment       0x00001b81       0x26 C:\Projects\AADS\xCore/3rdparty/linux/lib/libc.a(tzfile.o)
 .comment       0x00001ba7       0x26 C:\Projects\AADS\xCore/3rdparty/linux/lib/libc.a(opendir.o)
 .comment       0x00001bcd       0x26 C:\Projects\AADS\xCore/3rdparty/linux/lib/libc.a(closedir.o)
 .comment       0x00001bf3       0x26 C:\Projects\AADS\xCore/3rdparty/linux/lib/libc.a(readdir.o)
 .comment       0x00001c19       0x26 C:\Projects\AADS\xCore/3rdparty/linux/lib/libc.a(getdents.o)
 .comment       0x00001c3f       0x26 C:\Projects\AADS\xCore/3rdparty/linux/lib/libc.a(getuid.o)
 .comment       0x00001c65       0x26 C:\Projects\AADS\xCore/3rdparty/linux/lib/libc.a(geteuid.o)
 .comment       0x00001c8b       0x26 C:\Projects\AADS\xCore/3rdparty/linux/lib/libc.a(getgid.o)
 .comment       0x00001cb1       0x26 C:\Projects\AADS\xCore/3rdparty/linux/lib/libc.a(getegid.o)
 .comment       0x00001cd7       0x26 C:\Projects\AADS\xCore/3rdparty/linux/lib/libc.a(getopt_init.o)
 .comment       0x00001cfd       0x26 C:\Projects\AADS\xCore/3rdparty/linux/lib/libc.a(lxstat.o)
 .comment       0x00001d23       0x26 C:\Projects\AADS\xCore/3rdparty/linux/lib/libc.a(xstat64.o)
 .comment       0x00001d49       0x26 C:\Projects\AADS\xCore/3rdparty/linux/lib/libc.a(isatty.o)
 .comment       0x00001d6f       0x26 C:\Projects\AADS\xCore/3rdparty/linux/lib/libc.a(tcgetattr.o)
 .comment       0x00001d95       0x26 C:\Projects\AADS\xCore/3rdparty/linux/lib/libc.a(getrlimit.o)
 .comment       0x00001dbb       0x26 C:\Projects\AADS\xCore/3rdparty/linux/lib/libc.a(brk.o)
 .comment       0x00001de1       0x26 C:\Projects\AADS\xCore/3rdparty/linux/lib/libc.a(mntent_r.o)
 .comment       0x00001e07       0x26 C:\Projects\AADS\xCore/3rdparty/linux/lib/libc.a(init-misc.o)
 .comment       0x00001e2d       0x26 C:\Projects\AADS\xCore/3rdparty/linux/lib/libc.a(dl-profstub.o)
 .comment       0x00001e53       0x26 C:\Projects\AADS\xCore/3rdparty/linux/lib/libc.a(dl-libc.o)
 .comment       0x00001e79       0x26 C:\Projects\AADS\xCore/3rdparty/linux/lib/libc.a(mb_cur_max.o)
 .comment       0x00001e9f       0x26 C:\Projects\AADS\xCore/3rdparty/linux/lib/libc.a(s_isinf.o)
 .comment       0x00001ec5       0x26 C:\Projects\AADS\xCore/3rdparty/linux/lib/libc.a(s_isinfl.o)
 .comment       0x00001eeb       0x26 C:\Projects\AADS\xCore/3rdparty/linux/lib/libc.a(s_isnanl.o)
 .comment       0x00001f11       0x26 C:\Projects\AADS\xCore/3rdparty/linux/lib/libc.a(cmp.o)
 .comment       0x00001f37       0x26 C:\Projects\AADS\xCore/3rdparty/linux/lib/libc.a(divrem.o)
 .comment       0x00001f5d       0x26 C:\Projects\AADS\xCore/3rdparty/linux/lib/libc.a(mul.o)
 .comment       0x00001f83       0x26 C:\Projects\AADS\xCore/3rdparty/linux/lib/libc.a(mul_n.o)
 .comment       0x00001fa9       0x26 C:\Projects\AADS\xCore/3rdparty/linux/lib/libc.a(dbl2mpn.o)
 .comment       0x00001fcf       0x26 C:\Projects\AADS\xCore/3rdparty/linux/lib/libc.a(ldbl2mpn.o)
 .comment       0x00001ff5       0x26 C:\Projects\AADS\xCore/3rdparty/linux/lib/libc.a(fpioconst.o)
 .comment       0x0000201b       0x26 C:\Projects\AADS\xCore/3rdparty/linux/lib/libc.a(_itoa.o)
 .comment       0x00002041       0x26 C:\Projects\AADS\xCore/3rdparty/linux/lib/libc.a(_itowa.o)
 .comment       0x00002067       0x26 C:\Projects\AADS\xCore/3rdparty/linux/lib/libc.a(itoa-udigits.o)
 .comment       0x0000208d       0x26 C:\Projects\AADS\xCore/3rdparty/linux/lib/libc.a(itowa-digits.o)
 .comment       0x000020b3       0x26 C:\Projects\AADS\xCore/3rdparty/linux/lib/libc.a(vfscanf.o)
 .comment       0x000020d9       0x26 C:\Projects\AADS\xCore/3rdparty/linux/lib/libc.a(errlist.o)
 .comment       0x000020ff       0x26 C:\Projects\AADS\xCore/3rdparty/linux/lib/libc.a(iofread_u.o)
 .comment       0x00002125       0x26 C:\Projects\AADS\xCore/3rdparty/linux/lib/libc.a(wcslen.o)
 .comment       0x0000214b       0x26 C:\Projects\AADS\xCore/3rdparty/linux/lib/libc.a(mbsinit.o)
 .comment       0x00002171       0x26 C:\Projects\AADS\xCore/3rdparty/linux/lib/libc.a(offtime.o)
 .comment       0x00002197       0x26 C:\Projects\AADS\xCore/3rdparty/linux/lib/libc.a(localtime.o)
 .comment       0x000021bd       0x26 C:\Projects\AADS\xCore/3rdparty/linux/lib/libc.a(mktime.o)
 .comment       0x000021e3       0x26 C:\Projects\AADS\xCore/3rdparty/linux/lib/libc.a(dl-profile.o)
 .comment       0x00002209       0x26 C:\Projects\AADS\xCore/3rdparty/linux/lib/libc.a(dl-open.o)
 .comment       0x0000222f       0x26 C:\Projects\AADS\xCore/3rdparty/linux/lib/libc.a(dl-close.o)
 .comment       0x00002255       0x26 C:\Projects\AADS\xCore/3rdparty/linux/lib/libc.a(strtoll.o)
 .comment       0x0000227b       0x26 C:\Projects\AADS\xCore/3rdparty/linux/lib/libc.a(strtoull.o)
 .comment       0x000022a1       0x26 C:\Projects\AADS\xCore/3rdparty/linux/lib/libc.a(strtof.o)
 .comment       0x000022c7       0x26 C:\Projects\AADS\xCore/3rdparty/linux/lib/libc.a(strtod.o)
 .comment       0x000022ed       0x26 C:\Projects\AADS\xCore/3rdparty/linux/lib/libc.a(strtold.o)
 .comment       0x00002313       0x26 C:\Projects\AADS\xCore/3rdparty/linux/lib/libc.a(mpn2flt.o)
 .comment       0x00002339       0x26 C:\Projects\AADS\xCore/3rdparty/linux/lib/libc.a(mpn2dbl.o)
 .comment       0x0000235f       0x26 C:\Projects\AADS\xCore/3rdparty/linux/lib/libc.a(mpn2ldbl.o)
 .comment       0x00002385       0x26 C:\Projects\AADS\xCore/3rdparty/linux/lib/libc.a(strncpy.o)
 .comment       0x000023ab       0x26 C:\Projects\AADS\xCore/3rdparty/linux/lib/libc.a(ffs.o)
 .comment       0x000023d1       0x26 C:\Projects\AADS\xCore/3rdparty/linux/lib/libc.a(strncase.o)
 .comment       0x000023f7       0x26 C:\Projects\AADS\xCore/3rdparty/linux/lib/libc.a(profil.o)
 .comment       0x0000241d       0x26 C:\Projects\AADS\xCore/3rdparty/linux/lib/libc.a(prof-freq.o)
 .comment       0x00002443       0x26 C:\Projects\AADS\xCore/3rdparty/linux/lib/libc.a(dl-reloc.o)
 .comment       0x00002469       0x26 C:\Projects\AADS\xCore/3rdparty/linux/lib/libc.a(dl-deps.o)
 .comment       0x0000248f       0x26 C:\Projects\AADS\xCore/3rdparty/linux/lib/libc.a(dl-runtime.o)
 .comment       0x000024b5       0x26 C:\Projects\AADS\xCore/3rdparty/linux/lib/libc.a(dl-init.o)
 .comment       0x000024db       0x26 C:\Projects\AADS\xCore/3rdparty/linux/lib/libc.a(dl-debug.o)
 .comment       0x00002501       0x26 C:\Projects\AADS\xCore/3rdparty/linux/lib/libc.a(dl-version.o)
 .comment       0x00002527       0x26 C:\Projects\AADS\xCore/3rdparty/linux/lib/libc.a(sigfillset.o)
 .comment       0x0000254d       0x26 C:\Projects\AADS\xCore/3rdparty/linux/lib/libpthread.a(cancel.o)
 .comment       0x00002573       0x26 C:\Projects\AADS\xCore/3rdparty/linux/lib/libpthread.a(manager.o)
 .comment       0x00002599       0x26 C:\Projects\AADS\xCore/3rdparty/linux/lib/libpthread.a(pthread.o)
 .comment       0x000025bf       0x26 C:\Projects\AADS\xCore/3rdparty/linux/lib/libpthread.a(specific.o)
 .comment       0x000025e5       0x26 C:\Projects\AADS\xCore/3rdparty/linux/lib/libpthread.a(semaphore.o)
 .comment       0x0000260b       0x26 C:\Projects\AADS\xCore/3rdparty/linux/lib/libpthread.a(spinlock.o)
 .comment       0x00002631       0x26 C:\Projects\AADS\xCore/3rdparty/linux/lib/libpthread.a(wrapsyscall.o)
 .comment       0x00002657       0x26 C:\Projects\AADS\xCore/3rdparty/linux/lib/libpthread.a(events.o)
 .comment       0x0000267d       0x27 .\Linux-debug\main.obj
 .comment       0x000026a4       0x27 \Projects\AADS\Support\netlib\Linux-Debug\NetLib.lib(NetCommon.obj)
 .comment       0x000026cb       0x27 \Projects\AADS\Support\netlib\Linux-Debug\NetLib.lib(netlib.obj)
 .comment       0x000026f2       0x26 C:\Projects\AADS\xCore/3rdparty/linux/lib/libgcc.a(_udivdi3.o)
 .comment       0x00002718       0x26 C:\Projects\AADS\xCore/3rdparty/linux/lib/libgcc.a(_umoddi3.o)
 .comment       0x0000273e       0x26 C:\Projects\AADS\xCore/3rdparty/linux/lib/libc.a(sigjmp.o)
 .comment       0x00002764       0x26 C:\Projects\AADS\xCore/3rdparty/linux/lib/libc.a(sigsuspend.o)
 .comment       0x0000278a       0x26 C:\Projects\AADS\xCore/3rdparty/linux/lib/libc.a(sigempty.o)
 .comment       0x000027b0       0x26 C:\Projects\AADS\xCore/3rdparty/linux/lib/libc.a(sigaddset.o)
 .comment       0x000027d6       0x26 C:\Projects\AADS\xCore/3rdparty/linux/lib/libc.a(sigdelset.o)
 .comment       0x000027fc       0x26 C:\Projects\AADS\xCore/3rdparty/linux/lib/libc.a(on_exit.o)
 .comment       0x00002822       0x26 C:\Projects\AADS\xCore/3rdparty/linux/lib/libc.a(system.o)
 .comment       0x00002848       0x26 C:\Projects\AADS\xCore/3rdparty/linux/lib/libc.a(strverscmp.o)
 .comment       0x0000286e       0x26 C:\Projects\AADS\xCore/3rdparty/linux/lib/libc.a(strerror.o)
 .comment       0x00002894       0x26 C:\Projects\AADS\xCore/3rdparty/linux/lib/libc.a(wait.o)
 .comment       0x000028ba       0x26 C:\Projects\AADS\xCore/3rdparty/linux/lib/libc.a(waitpid.o)
 .comment       0x000028e0       0x26 C:\Projects\AADS\xCore/3rdparty/linux/lib/libc.a(execve.o)
 .comment       0x00002906       0x26 C:\Projects\AADS\xCore/3rdparty/linux/lib/libc.a(pread.o)
 .comment       0x0000292c       0x26 C:\Projects\AADS\xCore/3rdparty/linux/lib/libc.a(pwrite.o)
 .comment       0x00002952       0x26 C:\Projects\AADS\xCore/3rdparty/linux/lib/libc.a(pread64.o)
 .comment       0x00002978       0x26 C:\Projects\AADS\xCore/3rdparty/linux/lib/libc.a(pwrite64.o)
 .comment       0x0000299e       0x26 C:\Projects\AADS\xCore/3rdparty/linux/lib/libc.a(poll.o)
 .comment       0x000029c4       0x26 C:\Projects\AADS\xCore/3rdparty/linux/lib/libc.a(tcdrain.o)
 .comment       0x000029ea       0x26 C:\Projects\AADS\xCore/3rdparty/linux/lib/libc.a(setrlimit.o)
 .comment       0x00002a10       0x26 C:\Projects\AADS\xCore/3rdparty/linux/lib/libc.a(gethostname.o)
 .comment       0x00002a36       0x26 C:\Projects\AADS\xCore/3rdparty/linux/lib/libc.a(sysctl.o)
 .comment       0x00002a5c       0x26 C:\Projects\AADS\xCore/3rdparty/linux/lib/libc.a(res_libc.o)
 .comment       0x00002a82       0x26 C:\Projects\AADS\xCore/3rdparty/linux/lib/libc.a(herrno.o)
 .comment       0x00002aa8       0x26 C:\Projects\AADS\xCore/3rdparty/linux/lib/libc.a(gethstbyad.o)
 .comment       0x00002ace       0x26 C:\Projects\AADS\xCore/3rdparty/linux/lib/libc.a(gethstbyad_r.o)
 .comment       0x00002af4       0x26 C:\Projects\AADS\xCore/3rdparty/linux/lib/libc.a(gethstbynm.o)
 .comment       0x00002b1a       0x26 C:\Projects\AADS\xCore/3rdparty/linux/lib/libc.a(gethstbynm_r.o)
 .comment       0x00002b40       0x26 C:\Projects\AADS\xCore/3rdparty/linux/lib/libc.a(in6_addr.o)
 .comment       0x00002b66       0x26 C:\Projects\AADS\xCore/3rdparty/linux/lib/libc.a(nscd_gethst_r.o)
 .comment       0x00002b8c       0x26 C:\Projects\AADS\xCore/3rdparty/linux/lib/libc.a(readv.o)
 .comment       0x00002bb2       0x26 C:\Projects\AADS\xCore/3rdparty/linux/lib/libc.a(res_init.o)
 .comment       0x00002bd8       0x26 C:\Projects\AADS\xCore/3rdparty/linux/lib/libc.a(res_hconf.o)
 .comment       0x00002bfe       0x26 C:\Projects\AADS\xCore/3rdparty/linux/lib/libc.a(nsswitch.o)
 .comment       0x00002c24       0x26 C:\Projects\AADS\xCore/3rdparty/linux/lib/libc.a(digits_dots.o)
 .comment       0x00002c4a       0x26 C:\Projects\AADS\xCore/3rdparty/linux/lib/libc.a(hosts-lookup.o)
 .comment       0x00002c70       0x26 C:\Projects\AADS\xCore/3rdparty/linux/lib/libc.a(nscd_getgr_r.o)
 .comment       0x00002c96       0x26 C:\Projects\AADS\xCore/3rdparty/linux/lib/libc.a(snprintf.o)
 .comment       0x00002cbc       0x26 C:\Projects\AADS\xCore/3rdparty/linux/lib/libc.a(getline.o)
 .comment       0x00002ce2       0x26 C:\Projects\AADS\xCore/3rdparty/linux/lib/libc.a(vsnprintf.o)
 .comment       0x00002d08       0x26 C:\Projects\AADS\xCore/3rdparty/linux/lib/libc.a(libc_fatal.o)
 .comment       0x00002d2e       0x26 C:\Projects\AADS\xCore/3rdparty/linux/lib/libc.a(writev.o)
 .comment       0x00002d54       0x26 C:\Projects\AADS\xCore/3rdparty/linux/lib/libc.a(opensock.o)
 .comment       0x00002d7a       0x26 C:\Projects\AADS\xCore/3rdparty/linux/lib/libc.a(inet_addr.o)
 .comment       0x00002da0       0x26 C:\Projects\AADS\xCore/3rdparty/linux/lib/libc.a(inet_pton.o)

.debug
 *(.debug)

.line
 *(.line)

.debug_srcinfo
 *(.debug_srcinfo)

.debug_sfnames
 *(.debug_sfnames)

.debug_aranges
 *(.debug_aranges)

.debug_pubnames
 *(.debug_pubnames)

.debug_info
 *(.debug_info)
 *(.gnu.linkonce.wi.*)

.debug_abbrev
 *(.debug_abbrev)

.debug_line
 *(.debug_line)

.debug_frame
 *(.debug_frame)

.debug_str
 *(.debug_str)

.debug_loc
 *(.debug_loc)

.debug_macinfo
 *(.debug_macinfo)

.debug_weaknames
 *(.debug_weaknames)

.debug_funcnames
 *(.debug_funcnames)

.debug_typenames
 *(.debug_typenames)

.debug_varnames
 *(.debug_varnames)
OUTPUT(t:\serverlist.exe elf32-i386)

.note           0x00000000     0x1810
 .note          0x00000000       0x14 .\Linux-debug\bytestream.obj
 .note          0x00000014       0x14 \Projects\AADS\xCore\x_files\Linux-Debug\x_files.lib(x_plus.obj)
 .note          0x00000028       0x14 \Projects\AADS\xCore\x_files\Linux-Debug\x_files.lib(x_memory.obj)
 .note          0x0000003c       0x14 \Projects\AADS\xCore\x_files\Linux-Debug\x_files.lib(x_debug.obj)
 .note          0x00000050       0x14 \Projects\AADS\xCore\x_files\Linux-Debug\x_files.lib(x_time.obj)
 .note          0x00000064       0x14 \Projects\AADS\xCore\x_files\Linux-Debug\x_files.lib(x_threads.obj)
 .note          0x00000078       0x14 \Projects\AADS\xCore\x_files\Linux-Debug\x_files.lib(x_string.obj)
 .note          0x0000008c       0x14 \Projects\AADS\xCore\x_files\Linux-Debug\x_files.lib(x_stdio.obj)
 .note          0x000000a0       0x14 \Projects\AADS\xCore\x_files\Linux-Debug\x_files.lib(x_mutex.obj)
 .note          0x000000b4       0x14 \Projects\AADS\xCore\x_files\Linux-Debug\x_files.lib(x_files.obj)
 .note          0x000000c8       0x14 \Projects\AADS\xCore\x_files\Linux-Debug\x_files.lib(x_vsprintf.obj)
 .note          0x000000dc       0x14 C:\Projects\AADS\xCore/3rdparty/linux/lib/crti.o
 .note          0x000000f0       0x14 C:\Projects\AADS\xCore/3rdparty/linux/lib/crtbegin.o
 .note          0x00000104       0x14 C:\Projects\AADS\xCore/3rdparty/linux/lib/crtend.o
 .note          0x00000118       0x14 C:\Projects\AADS\xCore/3rdparty/linux/lib/crtn.o
 .note          0x0000012c       0x14 C:\Projects\AADS\xCore/3rdparty/linux/lib/crt1.o
 .note          0x00000140       0x14 C:\Projects\AADS\xCore/3rdparty/linux/lib/libm.a(w_pow.o)
 .note          0x00000154       0x14 C:\Projects\AADS\xCore/3rdparty/linux/lib/libm.a(k_standard.o)
 .note          0x00000168       0x14 C:\Projects\AADS\xCore/3rdparty/linux/lib/libm.a(s_lib_version.o)
 .note          0x0000017c       0x14 C:\Projects\AADS\xCore/3rdparty/linux/lib/libm.a(s_matherr.o)
 .note          0x00000190       0x14 C:\Projects\AADS\xCore/3rdparty/linux/lib/libc.a(libc-start.o)
 .note          0x000001a4       0x14 C:\Projects\AADS\xCore/3rdparty/linux/lib/libc.a(check_fds.o)
 .note          0x000001b8       0x14 C:\Projects\AADS\xCore/3rdparty/linux/lib/libc.a(errno-loc.o)
 .note          0x000001cc       0x14 C:\Projects\AADS\xCore/3rdparty/linux/lib/libc.a(assert.o)
 .note          0x000001e0       0x14 C:\Projects\AADS\xCore/3rdparty/linux/lib/libc.a(dcgettext.o)
 .note          0x000001f4       0x14 C:\Projects\AADS\xCore/3rdparty/linux/lib/libc.a(dcigettext.o)
 .note          0x00000208       0x14 C:\Projects\AADS\xCore/3rdparty/linux/lib/libc.a(finddomain.o)
 .note          0x0000021c       0x14 C:\Projects\AADS\xCore/3rdparty/linux/lib/libc.a(loadmsgcat.o)
 .note          0x00000230       0x14 C:\Projects\AADS\xCore/3rdparty/linux/lib/libc.a(localealias.o)
 .note          0x00000244       0x14 C:\Projects\AADS\xCore/3rdparty/linux/lib/libc.a(l10nflist.o)
 .note          0x00000258       0x14 C:\Projects\AADS\xCore/3rdparty/linux/lib/libc.a(explodename.o)
 .note          0x0000026c       0x14 C:\Projects\AADS\xCore/3rdparty/linux/lib/libc.a(plural.o)
 .note          0x00000280       0x14 C:\Projects\AADS\xCore/3rdparty/linux/lib/libc.a(s_isnan.o)
 .note          0x00000294       0x14 C:\Projects\AADS\xCore/3rdparty/linux/lib/libc.a(abort.o)
 .note          0x000002a8       0x14 C:\Projects\AADS\xCore/3rdparty/linux/lib/libc.a(bsearch.o)
 .note          0x000002bc       0x14 C:\Projects\AADS\xCore/3rdparty/linux/lib/libc.a(msort.o)
 .note          0x000002d0       0x14 C:\Projects\AADS\xCore/3rdparty/linux/lib/libc.a(getenv.o)
 .note          0x000002e4       0x14 C:\Projects\AADS\xCore/3rdparty/linux/lib/libc.a(exit.o)
 .note          0x000002f8       0x14 C:\Projects\AADS\xCore/3rdparty/linux/lib/libc.a(atexit.o)
 .note          0x0000030c       0x14 C:\Projects\AADS\xCore/3rdparty/linux/lib/libc.a(strtoul.o)
 .note          0x00000320       0x14 C:\Projects\AADS\xCore/3rdparty/linux/lib/libc.a(fprintf.o)
 .note          0x00000334       0x14 C:\Projects\AADS\xCore/3rdparty/linux/lib/libc.a(printf.o)
 .note          0x00000348       0x14 C:\Projects\AADS\xCore/3rdparty/linux/lib/libc.a(iofclose.o)
 .note          0x0000035c       0x14 C:\Projects\AADS\xCore/3rdparty/linux/lib/libc.a(iofflush.o)
 .note          0x00000370       0x14 C:\Projects\AADS\xCore/3rdparty/linux/lib/libc.a(iofopen.o)
 .note          0x00000384       0x14 C:\Projects\AADS\xCore/3rdparty/linux/lib/libc.a(iofputs.o)
 .note          0x00000398       0x14 C:\Projects\AADS\xCore/3rdparty/linux/lib/libc.a(iofread.o)
 .note          0x000003ac       0x14 C:\Projects\AADS\xCore/3rdparty/linux/lib/libc.a(ioftell.o)
 .note          0x000003c0       0x14 C:\Projects\AADS\xCore/3rdparty/linux/lib/libc.a(iofwrite.o)
 .note          0x000003d4       0x14 C:\Projects\AADS\xCore/3rdparty/linux/lib/libc.a(ioseekoff.o)
 .note          0x000003e8       0x14 C:\Projects\AADS\xCore/3rdparty/linux/lib/libc.a(iovsprintf.o)
 .note          0x000003fc       0x14 C:\Projects\AADS\xCore/3rdparty/linux/lib/libc.a(wfileops.o)
 .note          0x00000410       0x14 C:\Projects\AADS\xCore/3rdparty/linux/lib/libc.a(feof.o)
 .note          0x00000424       0x14 C:\Projects\AADS\xCore/3rdparty/linux/lib/libc.a(fseek.o)
 .note          0x00000438       0x14 C:\Projects\AADS\xCore/3rdparty/linux/lib/libc.a(fcloseall.o)
 .note          0x0000044c       0x14 C:\Projects\AADS\xCore/3rdparty/linux/lib/libc.a(iofgets_u.o)
 .note          0x00000460       0x14 C:\Projects\AADS\xCore/3rdparty/linux/lib/libc.a(fileops.o)
 .note          0x00000474       0x14 C:\Projects\AADS\xCore/3rdparty/linux/lib/libc.a(genops.o)
 .note          0x00000488       0x14 C:\Projects\AADS\xCore/3rdparty/linux/lib/libc.a(stdfiles.o)
 .note          0x0000049c       0x14 C:\Projects\AADS\xCore/3rdparty/linux/lib/libc.a(stdio.o)
 .note          0x000004b0       0x14 C:\Projects\AADS\xCore/3rdparty/linux/lib/libc.a(strops.o)
 .note          0x000004c4       0x14 C:\Projects\AADS\xCore/3rdparty/linux/lib/libc.a(malloc.o)
 .note          0x000004d8       0x14 C:\Projects\AADS\xCore/3rdparty/linux/lib/libc.a(morecore.o)
 .note          0x000004ec       0x14 C:\Projects\AADS\xCore/3rdparty/linux/lib/libc.a(strcmp.o)
 .note          0x00000500       0x14 C:\Projects\AADS\xCore/3rdparty/linux/lib/libc.a(strdup.o)
 .note          0x00000514       0x14 C:\Projects\AADS\xCore/3rdparty/linux/lib/libc.a(strncmp.o)
 .note          0x00000528       0x14 C:\Projects\AADS\xCore/3rdparty/linux/lib/libc.a(strstr.o)
 .note          0x0000053c       0x14 C:\Projects\AADS\xCore/3rdparty/linux/lib/libc.a(memmove.o)
 .note          0x00000550       0x14 C:\Projects\AADS\xCore/3rdparty/linux/lib/libc.a(memset.o)
 .note          0x00000564       0x14 C:\Projects\AADS\xCore/3rdparty/linux/lib/libc.a(mempcpy.o)
 .note          0x00000578       0x14 C:\Projects\AADS\xCore/3rdparty/linux/lib/libc.a(strcasecmp.o)
 .note          0x0000058c       0x14 C:\Projects\AADS\xCore/3rdparty/linux/lib/libc.a(memcpy.o)
 .note          0x000005a0       0x14 C:\Projects\AADS\xCore/3rdparty/linux/lib/libc.a(argz-count.o)
 .note          0x000005b4       0x14 C:\Projects\AADS\xCore/3rdparty/linux/lib/libc.a(argz-stringify.o)
 .note          0x000005c8       0x14 C:\Projects\AADS\xCore/3rdparty/linux/lib/libc.a(wmempcpy.o)
 .note          0x000005dc       0x14 C:\Projects\AADS\xCore/3rdparty/linux/lib/libc.a(wcsmbsload.o)
 .note          0x000005f0       0x14 C:\Projects\AADS\xCore/3rdparty/linux/lib/libc.a(sysconf.o)
 .note          0x00000604       0x14 C:\Projects\AADS\xCore/3rdparty/linux/lib/libc.a(environ.o)
 .note          0x00000618       0x14 C:\Projects\AADS\xCore/3rdparty/linux/lib/libc.a(fxstat64.o)
 .note          0x0000062c       0x14 C:\Projects\AADS\xCore/3rdparty/linux/lib/libc.a(open64.o)
 .note          0x00000640       0x14 C:\Projects\AADS\xCore/3rdparty/linux/lib/libc.a(fcntl.o)
 .note          0x00000654       0x14 C:\Projects\AADS\xCore/3rdparty/linux/lib/libc.a(getcwd.o)
 .note          0x00000668       0x14 C:\Projects\AADS\xCore/3rdparty/linux/lib/libc.a(sbrk.o)
 .note          0x0000067c       0x14 C:\Projects\AADS\xCore/3rdparty/linux/lib/libc.a(getpagesize.o)
 .note          0x00000690       0x14 C:\Projects\AADS\xCore/3rdparty/linux/lib/libc.a(getdtsz.o)
 .note          0x000006a4       0x14 C:\Projects\AADS\xCore/3rdparty/linux/lib/libc.a(usleep.o)
 .note          0x000006b8       0x14 C:\Projects\AADS\xCore/3rdparty/linux/lib/libc.a(tsearch.o)
 .note          0x000006cc       0x14 C:\Projects\AADS\xCore/3rdparty/linux/lib/libc.a(getsysstats.o)
 .note          0x000006e0       0x14 C:\Projects\AADS\xCore/3rdparty/linux/lib/libc.a(getclktck.o)
 .note          0x000006f4       0x14 C:\Projects\AADS\xCore/3rdparty/linux/lib/libc.a(llseek.o)
 .note          0x00000708       0x14 C:\Projects\AADS\xCore/3rdparty/linux/lib/libc.a(weaks.o)
 .note          0x0000071c       0x14 C:\Projects\AADS\xCore/3rdparty/linux/lib/libc.a(no-tsd.o)
 .note          0x00000730       0x14 C:\Projects\AADS\xCore/3rdparty/linux/lib/libc.a(dl-load.o)
 .note          0x00000744       0x14 C:\Projects\AADS\xCore/3rdparty/linux/lib/libc.a(dl-cache.o)
 .note          0x00000758       0x14 C:\Projects\AADS\xCore/3rdparty/linux/lib/libc.a(dl-lookup.o)
 .note          0x0000076c       0x14 C:\Projects\AADS\xCore/3rdparty/linux/lib/libc.a(dl-object.o)
 .note          0x00000780       0x14 C:\Projects\AADS\xCore/3rdparty/linux/lib/libc.a(dl-error.o)
 .note          0x00000794       0x14 C:\Projects\AADS\xCore/3rdparty/linux/lib/libc.a(dl-misc.o)
 .note          0x000007a8       0x14 C:\Projects\AADS\xCore/3rdparty/linux/lib/libc.a(dl-support.o)
 .note          0x000007bc       0x14 C:\Projects\AADS\xCore/3rdparty/linux/lib/libc.a(enbl-secure.o)
 .note          0x000007d0       0x14 C:\Projects\AADS\xCore/3rdparty/linux/lib/libc.a(dl-origin.o)
 .note          0x000007e4       0x14 C:\Projects\AADS\xCore/3rdparty/linux/lib/libc.a(dl-procinfo.o)
 .note          0x000007f8       0x14 C:\Projects\AADS\xCore/3rdparty/linux/lib/libc.a(init-first.o)
 .note          0x0000080c       0x14 C:\Projects\AADS\xCore/3rdparty/linux/lib/libc.a(set-init.o)
 .note          0x00000820       0x14 C:\Projects\AADS\xCore/3rdparty/linux/lib/libc.a(gconv_open.o)
 .note          0x00000834       0x14 C:\Projects\AADS\xCore/3rdparty/linux/lib/libc.a(gconv.o)
 .note          0x00000848       0x14 C:\Projects\AADS\xCore/3rdparty/linux/lib/libc.a(gconv_close.o)
 .note          0x0000085c       0x14 C:\Projects\AADS\xCore/3rdparty/linux/lib/libc.a(gconv_db.o)
 .note          0x00000870       0x14 C:\Projects\AADS\xCore/3rdparty/linux/lib/libc.a(gconv_conf.o)
 .note          0x00000884       0x14 C:\Projects\AADS\xCore/3rdparty/linux/lib/libc.a(gconv_builtin.o)
 .note          0x00000898       0x14 C:\Projects\AADS\xCore/3rdparty/linux/lib/libc.a(gconv_simple.o)
 .note          0x000008ac       0x14 C:\Projects\AADS\xCore/3rdparty/linux/lib/libc.a(gconv_trans.o)
 .note          0x000008c0       0x14 C:\Projects\AADS\xCore/3rdparty/linux/lib/libc.a(gconv_dl.o)
 .note          0x000008d4       0x14 C:\Projects\AADS\xCore/3rdparty/linux/lib/libc.a(setlocale.o)
 .note          0x000008e8       0x14 C:\Projects\AADS\xCore/3rdparty/linux/lib/libc.a(findlocale.o)
 .note          0x000008fc       0x14 C:\Projects\AADS\xCore/3rdparty/linux/lib/libc.a(loadlocale.o)
 .note          0x00000910       0x14 C:\Projects\AADS\xCore/3rdparty/linux/lib/libc.a(lc-ctype.o)
 .note          0x00000924       0x14 C:\Projects\AADS\xCore/3rdparty/linux/lib/libc.a(lc-messages.o)
 .note          0x00000938       0x14 C:\Projects\AADS\xCore/3rdparty/linux/lib/libc.a(lc-monetary.o)
 .note          0x0000094c       0x14 C:\Projects\AADS\xCore/3rdparty/linux/lib/libc.a(lc-numeric.o)
 .note          0x00000960       0x14 C:\Projects\AADS\xCore/3rdparty/linux/lib/libc.a(lc-time.o)
 .note          0x00000974       0x14 C:\Projects\AADS\xCore/3rdparty/linux/lib/libc.a(lc-paper.o)
 .note          0x00000988       0x14 C:\Projects\AADS\xCore/3rdparty/linux/lib/libc.a(lc-name.o)
 .note          0x0000099c       0x14 C:\Projects\AADS\xCore/3rdparty/linux/lib/libc.a(lc-address.o)
 .note          0x000009b0       0x14 C:\Projects\AADS\xCore/3rdparty/linux/lib/libc.a(lc-telephone.o)
 .note          0x000009c4       0x14 C:\Projects\AADS\xCore/3rdparty/linux/lib/libc.a(lc-measurement.o)
 .note          0x000009d8       0x14 C:\Projects\AADS\xCore/3rdparty/linux/lib/libc.a(lc-identification.o)
 .note          0x000009ec       0x14 C:\Projects\AADS\xCore/3rdparty/linux/lib/libc.a(lc-collate.o)
 .note          0x00000a00       0x14 C:\Projects\AADS\xCore/3rdparty/linux/lib/libc.a(C-ctype.o)
 .note          0x00000a14       0x14 C:\Projects\AADS\xCore/3rdparty/linux/lib/libc.a(C-messages.o)
 .note          0x00000a28       0x14 C:\Projects\AADS\xCore/3rdparty/linux/lib/libc.a(C-monetary.o)
 .note          0x00000a3c       0x14 C:\Projects\AADS\xCore/3rdparty/linux/lib/libc.a(C-numeric.o)
 .note          0x00000a50       0x14 C:\Projects\AADS\xCore/3rdparty/linux/lib/libc.a(C-time.o)
 .note          0x00000a64       0x14 C:\Projects\AADS\xCore/3rdparty/linux/lib/libc.a(C-paper.o)
 .note          0x00000a78       0x14 C:\Projects\AADS\xCore/3rdparty/linux/lib/libc.a(C-name.o)
 .note          0x00000a8c       0x14 C:\Projects\AADS\xCore/3rdparty/linux/lib/libc.a(C-address.o)
 .note          0x00000aa0       0x14 C:\Projects\AADS\xCore/3rdparty/linux/lib/libc.a(C-telephone.o)
 .note          0x00000ab4       0x14 C:\Projects\AADS\xCore/3rdparty/linux/lib/libc.a(C-measurement.o)
 .note          0x00000ac8       0x14 C:\Projects\AADS\xCore/3rdparty/linux/lib/libc.a(C-identification.o)
 .note          0x00000adc       0x14 C:\Projects\AADS\xCore/3rdparty/linux/lib/libc.a(C-collate.o)
 .note          0x00000af0       0x14 C:\Projects\AADS\xCore/3rdparty/linux/lib/libc.a(SYS_libc.o)
 .note          0x00000b04       0x14 C:\Projects\AADS\xCore/3rdparty/linux/lib/libc.a(C_name.o)
 .note          0x00000b18       0x14 C:\Projects\AADS\xCore/3rdparty/linux/lib/libc.a(ctype-info.o)
 .note          0x00000b2c       0x14 C:\Projects\AADS\xCore/3rdparty/linux/lib/libc.a(setfpucw.o)
 .note          0x00000b40       0x14 C:\Projects\AADS\xCore/3rdparty/linux/lib/libc.a(fpu_control.o)
 .note          0x00000b54       0x14 C:\Projects\AADS\xCore/3rdparty/linux/lib/libc.a(longjmp.o)
 .note          0x00000b68       0x14 C:\Projects\AADS\xCore/3rdparty/linux/lib/libc.a(jmp-unwind.o)
 .note          0x00000b7c       0x14 C:\Projects\AADS\xCore/3rdparty/linux/lib/libc.a(raise.o)
 .note          0x00000b90       0x14 C:\Projects\AADS\xCore/3rdparty/linux/lib/libc.a(sigaction.o)
 .note          0x00000ba4       0x14 C:\Projects\AADS\xCore/3rdparty/linux/lib/libc.a(sigprocmask.o)
 .note          0x00000bb8       0x14 C:\Projects\AADS\xCore/3rdparty/linux/lib/libc.a(qsort.o)
 .note          0x00000bcc       0x14 C:\Projects\AADS\xCore/3rdparty/linux/lib/libc.a(setenv.o)
 .note          0x00000be0       0x14 C:\Projects\AADS\xCore/3rdparty/linux/lib/libc.a(strtol.o)
 .note          0x00000bf4       0x14 C:\Projects\AADS\xCore/3rdparty/linux/lib/libc.a(itoa-digits.o)
 .note          0x00000c08       0x14 C:\Projects\AADS\xCore/3rdparty/linux/lib/libc.a(vfprintf.o)
 .note          0x00000c1c       0x14 C:\Projects\AADS\xCore/3rdparty/linux/lib/libc.a(printf_fp.o)
 .note          0x00000c30       0x14 C:\Projects\AADS\xCore/3rdparty/linux/lib/libc.a(reg-printf.o)
 .note          0x00000c44       0x14 C:\Projects\AADS\xCore/3rdparty/linux/lib/libc.a(printf_fphex.o)
 .note          0x00000c58       0x14 C:\Projects\AADS\xCore/3rdparty/linux/lib/libc.a(sscanf.o)
 .note          0x00000c6c       0x14 C:\Projects\AADS\xCore/3rdparty/linux/lib/libc.a(lockfile.o)
 .note          0x00000c80       0x14 C:\Projects\AADS\xCore/3rdparty/linux/lib/libc.a(filedoalloc.o)
 .note          0x00000c94       0x14 C:\Projects\AADS\xCore/3rdparty/linux/lib/libc.a(wfiledoalloc.o)
 .note          0x00000ca8       0x14 C:\Projects\AADS\xCore/3rdparty/linux/lib/libc.a(iogetdelim.o)
 .note          0x00000cbc       0x14 C:\Projects\AADS\xCore/3rdparty/linux/lib/libc.a(iogetline.o)
 .note          0x00000cd0       0x14 C:\Projects\AADS\xCore/3rdparty/linux/lib/libc.a(iopadn.o)
 .note          0x00000ce4       0x14 C:\Projects\AADS\xCore/3rdparty/linux/lib/libc.a(iovsscanf.o)
 .note          0x00000cf8       0x14 C:\Projects\AADS\xCore/3rdparty/linux/lib/libc.a(iowpadn.o)
 .note          0x00000d0c       0x14 C:\Projects\AADS\xCore/3rdparty/linux/lib/libc.a(wgenops.o)
 .note          0x00000d20       0x14 C:\Projects\AADS\xCore/3rdparty/linux/lib/libc.a(iofwide.o)
 .note          0x00000d34       0x14 C:\Projects\AADS\xCore/3rdparty/linux/lib/libc.a(strcpy.o)
 .note          0x00000d48       0x14 C:\Projects\AADS\xCore/3rdparty/linux/lib/libc.a(strndup.o)
 .note          0x00000d5c       0x14 C:\Projects\AADS\xCore/3rdparty/linux/lib/libc.a(_strerror.o)
 .note          0x00000d70       0x14 C:\Projects\AADS\xCore/3rdparty/linux/lib/libc.a(strnlen.o)
 .note          0x00000d84       0x14 C:\Projects\AADS\xCore/3rdparty/linux/lib/libc.a(argz-ctsep.o)
 .note          0x00000d98       0x14 C:\Projects\AADS\xCore/3rdparty/linux/lib/libc.a(argz-addsep.o)
 .note          0x00000dac       0x14 C:\Projects\AADS\xCore/3rdparty/linux/lib/libc.a(wcschr.o)
 .note          0x00000dc0       0x14 C:\Projects\AADS\xCore/3rdparty/linux/lib/libc.a(wmemcpy.o)
 .note          0x00000dd4       0x14 C:\Projects\AADS\xCore/3rdparty/linux/lib/libc.a(wmemmove.o)
 .note          0x00000de8       0x14 C:\Projects\AADS\xCore/3rdparty/linux/lib/libc.a(mbrlen.o)
 .note          0x00000dfc       0x14 C:\Projects\AADS\xCore/3rdparty/linux/lib/libc.a(mbrtowc.o)
 .note          0x00000e10       0x14 C:\Projects\AADS\xCore/3rdparty/linux/lib/libc.a(wcrtomb.o)
 .note          0x00000e24       0x14 C:\Projects\AADS\xCore/3rdparty/linux/lib/libc.a(wcsrtombs.o)
 .note          0x00000e38       0x14 C:\Projects\AADS\xCore/3rdparty/linux/lib/libc.a(mbsnrtowcs.o)
 .note          0x00000e4c       0x14 C:\Projects\AADS\xCore/3rdparty/linux/lib/libc.a(wcsnlen.o)
 .note          0x00000e60       0x14 C:\Projects\AADS\xCore/3rdparty/linux/lib/libc.a(tzset.o)
 .note          0x00000e74       0x14 C:\Projects\AADS\xCore/3rdparty/linux/lib/libc.a(tzfile.o)
 .note          0x00000e88       0x14 C:\Projects\AADS\xCore/3rdparty/linux/lib/libc.a(opendir.o)
 .note          0x00000e9c       0x14 C:\Projects\AADS\xCore/3rdparty/linux/lib/libc.a(closedir.o)
 .note          0x00000eb0       0x14 C:\Projects\AADS\xCore/3rdparty/linux/lib/libc.a(readdir.o)
 .note          0x00000ec4       0x14 C:\Projects\AADS\xCore/3rdparty/linux/lib/libc.a(getdents.o)
 .note          0x00000ed8       0x14 C:\Projects\AADS\xCore/3rdparty/linux/lib/libc.a(getuid.o)
 .note          0x00000eec       0x14 C:\Projects\AADS\xCore/3rdparty/linux/lib/libc.a(geteuid.o)
 .note          0x00000f00       0x14 C:\Projects\AADS\xCore/3rdparty/linux/lib/libc.a(getgid.o)
 .note          0x00000f14       0x14 C:\Projects\AADS\xCore/3rdparty/linux/lib/libc.a(getegid.o)
 .note          0x00000f28       0x14 C:\Projects\AADS\xCore/3rdparty/linux/lib/libc.a(getopt_init.o)
 .note          0x00000f3c       0x14 C:\Projects\AADS\xCore/3rdparty/linux/lib/libc.a(lxstat.o)
 .note          0x00000f50       0x14 C:\Projects\AADS\xCore/3rdparty/linux/lib/libc.a(xstat64.o)
 .note          0x00000f64       0x14 C:\Projects\AADS\xCore/3rdparty/linux/lib/libc.a(isatty.o)
 .note          0x00000f78       0x14 C:\Projects\AADS\xCore/3rdparty/linux/lib/libc.a(tcgetattr.o)
 .note          0x00000f8c       0x14 C:\Projects\AADS\xCore/3rdparty/linux/lib/libc.a(getrlimit.o)
 .note          0x00000fa0       0x14 C:\Projects\AADS\xCore/3rdparty/linux/lib/libc.a(brk.o)
 .note          0x00000fb4       0x14 C:\Projects\AADS\xCore/3rdparty/linux/lib/libc.a(mntent_r.o)
 .note          0x00000fc8       0x14 C:\Projects\AADS\xCore/3rdparty/linux/lib/libc.a(init-misc.o)
 .note          0x00000fdc       0x14 C:\Projects\AADS\xCore/3rdparty/linux/lib/libc.a(dl-profstub.o)
 .note          0x00000ff0       0x14 C:\Projects\AADS\xCore/3rdparty/linux/lib/libc.a(dl-libc.o)
 .note          0x00001004       0x14 C:\Projects\AADS\xCore/3rdparty/linux/lib/libc.a(mb_cur_max.o)
 .note          0x00001018       0x14 C:\Projects\AADS\xCore/3rdparty/linux/lib/libc.a(s_isinf.o)
 .note          0x0000102c       0x14 C:\Projects\AADS\xCore/3rdparty/linux/lib/libc.a(s_isinfl.o)
 .note          0x00001040       0x14 C:\Projects\AADS\xCore/3rdparty/linux/lib/libc.a(s_isnanl.o)
 .note          0x00001054       0x14 C:\Projects\AADS\xCore/3rdparty/linux/lib/libc.a(cmp.o)
 .note          0x00001068       0x14 C:\Projects\AADS\xCore/3rdparty/linux/lib/libc.a(divrem.o)
 .note          0x0000107c       0x14 C:\Projects\AADS\xCore/3rdparty/linux/lib/libc.a(mul.o)
 .note          0x00001090       0x14 C:\Projects\AADS\xCore/3rdparty/linux/lib/libc.a(mul_n.o)
 .note          0x000010a4       0x14 C:\Projects\AADS\xCore/3rdparty/linux/lib/libc.a(dbl2mpn.o)
 .note          0x000010b8       0x14 C:\Projects\AADS\xCore/3rdparty/linux/lib/libc.a(ldbl2mpn.o)
 .note          0x000010cc       0x14 C:\Projects\AADS\xCore/3rdparty/linux/lib/libc.a(fpioconst.o)
 .note          0x000010e0       0x14 C:\Projects\AADS\xCore/3rdparty/linux/lib/libc.a(_itoa.o)
 .note          0x000010f4       0x14 C:\Projects\AADS\xCore/3rdparty/linux/lib/libc.a(_itowa.o)
 .note          0x00001108       0x14 C:\Projects\AADS\xCore/3rdparty/linux/lib/libc.a(itoa-udigits.o)
 .note          0x0000111c       0x14 C:\Projects\AADS\xCore/3rdparty/linux/lib/libc.a(itowa-digits.o)
 .note          0x00001130       0x14 C:\Projects\AADS\xCore/3rdparty/linux/lib/libc.a(vfscanf.o)
 .note          0x00001144       0x14 C:\Projects\AADS\xCore/3rdparty/linux/lib/libc.a(errlist.o)
 .note          0x00001158       0x14 C:\Projects\AADS\xCore/3rdparty/linux/lib/libc.a(iofread_u.o)
 .note          0x0000116c       0x14 C:\Projects\AADS\xCore/3rdparty/linux/lib/libc.a(wcslen.o)
 .note          0x00001180       0x14 C:\Projects\AADS\xCore/3rdparty/linux/lib/libc.a(mbsinit.o)
 .note          0x00001194       0x14 C:\Projects\AADS\xCore/3rdparty/linux/lib/libc.a(offtime.o)
 .note          0x000011a8       0x14 C:\Projects\AADS\xCore/3rdparty/linux/lib/libc.a(localtime.o)
 .note          0x000011bc       0x14 C:\Projects\AADS\xCore/3rdparty/linux/lib/libc.a(mktime.o)
 .note          0x000011d0       0x14 C:\Projects\AADS\xCore/3rdparty/linux/lib/libc.a(dl-profile.o)
 .note          0x000011e4       0x14 C:\Projects\AADS\xCore/3rdparty/linux/lib/libc.a(dl-open.o)
 .note          0x000011f8       0x14 C:\Projects\AADS\xCore/3rdparty/linux/lib/libc.a(dl-close.o)
 .note          0x0000120c       0x14 C:\Projects\AADS\xCore/3rdparty/linux/lib/libc.a(strtoll.o)
 .note          0x00001220       0x14 C:\Projects\AADS\xCore/3rdparty/linux/lib/libc.a(strtoull.o)
 .note          0x00001234       0x14 C:\Projects\AADS\xCore/3rdparty/linux/lib/libc.a(strtof.o)
 .note          0x00001248       0x14 C:\Projects\AADS\xCore/3rdparty/linux/lib/libc.a(strtod.o)
 .note          0x0000125c       0x14 C:\Projects\AADS\xCore/3rdparty/linux/lib/libc.a(strtold.o)
 .note          0x00001270       0x14 C:\Projects\AADS\xCore/3rdparty/linux/lib/libc.a(mpn2flt.o)
 .note          0x00001284       0x14 C:\Projects\AADS\xCore/3rdparty/linux/lib/libc.a(mpn2dbl.o)
 .note          0x00001298       0x14 C:\Projects\AADS\xCore/3rdparty/linux/lib/libc.a(mpn2ldbl.o)
 .note          0x000012ac       0x14 C:\Projects\AADS\xCore/3rdparty/linux/lib/libc.a(strncpy.o)
 .note          0x000012c0       0x14 C:\Projects\AADS\xCore/3rdparty/linux/lib/libc.a(ffs.o)
 .note          0x000012d4       0x14 C:\Projects\AADS\xCore/3rdparty/linux/lib/libc.a(strncase.o)
 .note          0x000012e8       0x14 C:\Projects\AADS\xCore/3rdparty/linux/lib/libc.a(profil.o)
 .note          0x000012fc       0x14 C:\Projects\AADS\xCore/3rdparty/linux/lib/libc.a(prof-freq.o)
 .note          0x00001310       0x14 C:\Projects\AADS\xCore/3rdparty/linux/lib/libc.a(dl-reloc.o)
 .note          0x00001324       0x14 C:\Projects\AADS\xCore/3rdparty/linux/lib/libc.a(dl-deps.o)
 .note          0x00001338       0x14 C:\Projects\AADS\xCore/3rdparty/linux/lib/libc.a(dl-runtime.o)
 .note          0x0000134c       0x14 C:\Projects\AADS\xCore/3rdparty/linux/lib/libc.a(dl-init.o)
 .note          0x00001360       0x14 C:\Projects\AADS\xCore/3rdparty/linux/lib/libc.a(dl-debug.o)
 .note          0x00001374       0x14 C:\Projects\AADS\xCore/3rdparty/linux/lib/libc.a(dl-version.o)
 .note          0x00001388       0x14 C:\Projects\AADS\xCore/3rdparty/linux/lib/libc.a(sigfillset.o)
 .note          0x0000139c       0x14 C:\Projects\AADS\xCore/3rdparty/linux/lib/libpthread.a(cancel.o)
 .note          0x000013b0       0x14 C:\Projects\AADS\xCore/3rdparty/linux/lib/libpthread.a(manager.o)
 .note          0x000013c4       0x14 C:\Projects\AADS\xCore/3rdparty/linux/lib/libpthread.a(pthread.o)
 .note          0x000013d8       0x14 C:\Projects\AADS\xCore/3rdparty/linux/lib/libpthread.a(specific.o)
 .note          0x000013ec       0x14 C:\Projects\AADS\xCore/3rdparty/linux/lib/libpthread.a(semaphore.o)
 .note          0x00001400       0x14 C:\Projects\AADS\xCore/3rdparty/linux/lib/libpthread.a(spinlock.o)
 .note          0x00001414       0x14 C:\Projects\AADS\xCore/3rdparty/linux/lib/libpthread.a(wrapsyscall.o)
 .note          0x00001428       0x14 C:\Projects\AADS\xCore/3rdparty/linux/lib/libpthread.a(events.o)
 .note          0x0000143c       0x14 .\Linux-debug\main.obj
 .note          0x00001450       0x14 \Projects\AADS\Support\netlib\Linux-Debug\NetLib.lib(NetCommon.obj)
 .note          0x00001464       0x14 \Projects\AADS\Support\netlib\Linux-Debug\NetLib.lib(netlib.obj)
 .note          0x00001478       0x14 C:\Projects\AADS\xCore/3rdparty/linux/lib/libgcc.a(_udivdi3.o)
 .note          0x0000148c       0x14 C:\Projects\AADS\xCore/3rdparty/linux/lib/libgcc.a(_umoddi3.o)
 .note          0x000014a0       0x14 C:\Projects\AADS\xCore/3rdparty/linux/lib/libc.a(sigjmp.o)
 .note          0x000014b4       0x14 C:\Projects\AADS\xCore/3rdparty/linux/lib/libc.a(sigsuspend.o)
 .note          0x000014c8       0x14 C:\Projects\AADS\xCore/3rdparty/linux/lib/libc.a(sigempty.o)
 .note          0x000014dc       0x14 C:\Projects\AADS\xCore/3rdparty/linux/lib/libc.a(sigaddset.o)
 .note          0x000014f0       0x14 C:\Projects\AADS\xCore/3rdparty/linux/lib/libc.a(sigdelset.o)
 .note          0x00001504       0x14 C:\Projects\AADS\xCore/3rdparty/linux/lib/libc.a(on_exit.o)
 .note          0x00001518       0x14 C:\Projects\AADS\xCore/3rdparty/linux/lib/libc.a(system.o)
 .note          0x0000152c       0x14 C:\Projects\AADS\xCore/3rdparty/linux/lib/libc.a(strverscmp.o)
 .note          0x00001540       0x14 C:\Projects\AADS\xCore/3rdparty/linux/lib/libc.a(strerror.o)
 .note          0x00001554       0x14 C:\Projects\AADS\xCore/3rdparty/linux/lib/libc.a(wait.o)
 .note          0x00001568       0x14 C:\Projects\AADS\xCore/3rdparty/linux/lib/libc.a(waitpid.o)
 .note          0x0000157c       0x14 C:\Projects\AADS\xCore/3rdparty/linux/lib/libc.a(execve.o)
 .note          0x00001590       0x14 C:\Projects\AADS\xCore/3rdparty/linux/lib/libc.a(pread.o)
 .note          0x000015a4       0x14 C:\Projects\AADS\xCore/3rdparty/linux/lib/libc.a(pwrite.o)
 .note          0x000015b8       0x14 C:\Projects\AADS\xCore/3rdparty/linux/lib/libc.a(pread64.o)
 .note          0x000015cc       0x14 C:\Projects\AADS\xCore/3rdparty/linux/lib/libc.a(pwrite64.o)
 .note          0x000015e0       0x14 C:\Projects\AADS\xCore/3rdparty/linux/lib/libc.a(poll.o)
 .note          0x000015f4       0x14 C:\Projects\AADS\xCore/3rdparty/linux/lib/libc.a(tcdrain.o)
 .note          0x00001608       0x14 C:\Projects\AADS\xCore/3rdparty/linux/lib/libc.a(setrlimit.o)
 .note          0x0000161c       0x14 C:\Projects\AADS\xCore/3rdparty/linux/lib/libc.a(gethostname.o)
 .note          0x00001630       0x14 C:\Projects\AADS\xCore/3rdparty/linux/lib/libc.a(sysctl.o)
 .note          0x00001644       0x14 C:\Projects\AADS\xCore/3rdparty/linux/lib/libc.a(res_libc.o)
 .note          0x00001658       0x14 C:\Projects\AADS\xCore/3rdparty/linux/lib/libc.a(herrno.o)
 .note          0x0000166c       0x14 C:\Projects\AADS\xCore/3rdparty/linux/lib/libc.a(gethstbyad.o)
 .note          0x00001680       0x14 C:\Projects\AADS\xCore/3rdparty/linux/lib/libc.a(gethstbyad_r.o)
 .note          0x00001694       0x14 C:\Projects\AADS\xCore/3rdparty/linux/lib/libc.a(gethstbynm.o)
 .note          0x000016a8       0x14 C:\Projects\AADS\xCore/3rdparty/linux/lib/libc.a(gethstbynm_r.o)
 .note          0x000016bc       0x14 C:\Projects\AADS\xCore/3rdparty/linux/lib/libc.a(in6_addr.o)
 .note          0x000016d0       0x14 C:\Projects\AADS\xCore/3rdparty/linux/lib/libc.a(nscd_gethst_r.o)
 .note          0x000016e4       0x14 C:\Projects\AADS\xCore/3rdparty/linux/lib/libc.a(readv.o)
 .note          0x000016f8       0x14 C:\Projects\AADS\xCore/3rdparty/linux/lib/libc.a(res_init.o)
 .note          0x0000170c       0x14 C:\Projects\AADS\xCore/3rdparty/linux/lib/libc.a(res_hconf.o)
 .note          0x00001720       0x14 C:\Projects\AADS\xCore/3rdparty/linux/lib/libc.a(nsswitch.o)
 .note          0x00001734       0x14 C:\Projects\AADS\xCore/3rdparty/linux/lib/libc.a(digits_dots.o)
 .note          0x00001748       0x14 C:\Projects\AADS\xCore/3rdparty/linux/lib/libc.a(hosts-lookup.o)
 .note          0x0000175c       0x14 C:\Projects\AADS\xCore/3rdparty/linux/lib/libc.a(nscd_getgr_r.o)
 .note          0x00001770       0x14 C:\Projects\AADS\xCore/3rdparty/linux/lib/libc.a(snprintf.o)
 .note          0x00001784       0x14 C:\Projects\AADS\xCore/3rdparty/linux/lib/libc.a(getline.o)
 .note          0x00001798       0x14 C:\Projects\AADS\xCore/3rdparty/linux/lib/libc.a(vsnprintf.o)
 .note          0x000017ac       0x14 C:\Projects\AADS\xCore/3rdparty/linux/lib/libc.a(libc_fatal.o)
 .note          0x000017c0       0x14 C:\Projects\AADS\xCore/3rdparty/linux/lib/libc.a(writev.o)
 .note          0x000017d4       0x14 C:\Projects\AADS\xCore/3rdparty/linux/lib/libc.a(opensock.o)
 .note          0x000017e8       0x14 C:\Projects\AADS\xCore/3rdparty/linux/lib/libc.a(inet_addr.o)
 .note          0x000017fc       0x14 C:\Projects\AADS\xCore/3rdparty/linux/lib/libc.a(inet_pton.o)
